TI ARM Assembler PC v18.1.3 Wed Dec 12 17:41:55 2018

Tools Copyright (c) 1996-2017 Texas Instruments Incorporated
C:\Users\THE_WO~1\AppData\Local\Temp\{050965DE-8841-4571-8C2C-9ACC23B5DBE4} PAGE    1

       1                    ;******************************************************************************
       2                    ;* TI ARM C/C++ Codegen                                        PC v18.1.3.LTS *
       3                    ;* Date/Time created: Wed Dec 12 17:41:55 2018                                *
       4                    ;******************************************************************************
       5                            .compiler_opts --abi=eabi --arm_vmrs_si_workaround=off --code_state=16 --diag_wrap=off --embed
       6 00000000                   .thumb
       7                    
       8                    $C$DW$CU        .dwtag  DW_TAG_compile_unit
       9                            .dwattr $C$DW$CU, DW_AT_name("../Application/LaunchPad/board_gpio.c")
      10                            .dwattr $C$DW$CU, DW_AT_producer("TI TI ARM C/C++ Codegen PC v18.1.3.LTS Copyright (c) 1996-20
      11                            .dwattr $C$DW$CU, DW_AT_TI_version(0x01)
      12                            .dwattr $C$DW$CU, DW_AT_comp_dir("C:\Users\The_Wonderer\Google Drive\School\2018_3_Semester_Fa
      13                    
      14                    $C$DW$1 .dwtag  DW_TAG_subprogram
      15                            .dwattr $C$DW$1, DW_AT_name("PIN_open")
      16                            .dwattr $C$DW$1, DW_AT_TI_symbol_name("PIN_open")
      17                            .dwattr $C$DW$1, DW_AT_type(*$C$DW$T$209)
      18                            .dwattr $C$DW$1, DW_AT_declaration
      19                            .dwattr $C$DW$1, DW_AT_external
      20                            .dwattr $C$DW$1, DW_AT_decl_file("C:/ti/simplelink_cc13x0_sdk_2_30_00_20/source/ti/drivers/PIN
      21                            .dwattr $C$DW$1, DW_AT_decl_line(0x2f5)
      22                            .dwattr $C$DW$1, DW_AT_decl_column(0x13)
      23                    $C$DW$2 .dwtag  DW_TAG_formal_parameter
      24                            .dwattr $C$DW$2, DW_AT_type(*$C$DW$T$208)
      25                    
      26                    $C$DW$3 .dwtag  DW_TAG_formal_parameter
      27                            .dwattr $C$DW$3, DW_AT_type(*$C$DW$T$536)
      28                    
      29                            .dwendtag $C$DW$1
      30                    
      31                    
      32                    $C$DW$4 .dwtag  DW_TAG_subprogram
      33                            .dwattr $C$DW$4, DW_AT_name("HwiP_disable")
      34                            .dwattr $C$DW$4, DW_AT_TI_symbol_name("HwiP_disable")
      35                            .dwattr $C$DW$4, DW_AT_type(*$C$DW$T$201)
      36                            .dwattr $C$DW$4, DW_AT_declaration
      37                            .dwattr $C$DW$4, DW_AT_external
      38                            .dwattr $C$DW$4, DW_AT_decl_file("C:/ti/simplelink_cc13x0_sdk_2_30_00_20/source/ti/drivers/dpl
      39                            .dwattr $C$DW$4, DW_AT_decl_line(0xd1)
      40                            .dwattr $C$DW$4, DW_AT_decl_column(0x12)
      41                            .dwendtag $C$DW$4
      42                    
      43                    
      44                    $C$DW$5 .dwtag  DW_TAG_subprogram
      45                            .dwattr $C$DW$5, DW_AT_name("PIN_setOutputValue")
      46                            .dwattr $C$DW$5, DW_AT_TI_symbol_name("PIN_setOutputValue")
      47                            .dwattr $C$DW$5, DW_AT_type(*$C$DW$T$485)
      48                            .dwattr $C$DW$5, DW_AT_declaration
      49                            .dwattr $C$DW$5, DW_AT_external
      50                            .dwattr $C$DW$5, DW_AT_decl_file("C:/ti/simplelink_cc13x0_sdk_2_30_00_20/source/ti/drivers/PIN
      51                            .dwattr $C$DW$5, DW_AT_decl_line(0x367)
      52                            .dwattr $C$DW$5, DW_AT_decl_column(0x13)
      53                    $C$DW$6 .dwtag  DW_TAG_formal_parameter
      54                            .dwattr $C$DW$6, DW_AT_type(*$C$DW$T$209)
      55                    
TI ARM Assembler PC v18.1.3 Wed Dec 12 17:41:55 2018

Tools Copyright (c) 1996-2017 Texas Instruments Incorporated
C:\Users\THE_WO~1\AppData\Local\Temp\{050965DE-8841-4571-8C2C-9ACC23B5DBE4} PAGE    2

      56                    $C$DW$7 .dwtag  DW_TAG_formal_parameter
      57                            .dwattr $C$DW$7, DW_AT_type(*$C$DW$T$210)
      58                    
      59                    $C$DW$8 .dwtag  DW_TAG_formal_parameter
      60                            .dwattr $C$DW$8, DW_AT_type(*$C$DW$T$141)
      61                    
      62                            .dwendtag $C$DW$5
      63                    
      64                    
      65                    $C$DW$9 .dwtag  DW_TAG_subprogram
      66                            .dwattr $C$DW$9, DW_AT_name("HwiP_restore")
      67                            .dwattr $C$DW$9, DW_AT_TI_symbol_name("HwiP_restore")
      68                            .dwattr $C$DW$9, DW_AT_declaration
      69                            .dwattr $C$DW$9, DW_AT_external
      70                            .dwattr $C$DW$9, DW_AT_decl_file("C:/ti/simplelink_cc13x0_sdk_2_30_00_20/source/ti/drivers/dpl
      71                            .dwattr $C$DW$9, DW_AT_decl_line(0x10f)
      72                            .dwattr $C$DW$9, DW_AT_decl_column(0x0d)
      73                    $C$DW$10        .dwtag  DW_TAG_formal_parameter
      74                            .dwattr $C$DW$10, DW_AT_type(*$C$DW$T$201)
      75                    
      76                            .dwendtag $C$DW$9
      77                    
      78 00000000                   .sect   ".data:$O1$$", RW
      79                            .align  4
      80                            .elfsym ||$O1$$||,SYM_SIZE(24)
      81 00000000           ||$O1$$||:
      82 00000000 00000000          .bits   0,32
      83 00000004 80C00801          .bits   -2134898687,32                  ; $O1$$.gpioPinTable[0] @ 32
      84 00000008 000000FE          .bits   254,32                  ; $O1$$.gpioPinTable[1] @ 64
      85 0000000c                   .space  12
      86                    
      87                    
      88                    ;*********************************************************************
      89                    ;* GROUPED GLOBALS FOR $O1$$                                         *
      90                    ;*********************************************************************
      91          00000000! gpioPinHandle:  .set    ||$O1$$||+0
      92                    $C$DW$11        .dwtag  DW_TAG_variable
      93                            .dwattr $C$DW$11, DW_AT_name("gpioPinHandle")
      94                            .dwattr $C$DW$11, DW_AT_TI_symbol_name("gpioPinHandle")
      95                            .dwattr $C$DW$11, DW_AT_type(*$C$DW$T$209)
      96                            .dwattr $C$DW$11, DW_AT_location[DW_OP_addr gpioPinHandle]
      97                            .dwattr $C$DW$11, DW_AT_decl_file("../Application/LaunchPad/board_gpio.c")
      98                            .dwattr $C$DW$11, DW_AT_decl_line(0x68)
      99                            .dwattr $C$DW$11, DW_AT_decl_column(0x13)
     100                    
     101          00000004! gpioPinTable:   .set    ||$O1$$||+4
     102                    $C$DW$12        .dwtag  DW_TAG_variable
     103                            .dwattr $C$DW$12, DW_AT_name("gpioPinTable")
     104                            .dwattr $C$DW$12, DW_AT_TI_symbol_name("gpioPinTable")
     105                            .dwattr $C$DW$12, DW_AT_type(*$C$DW$T$917)
     106                            .dwattr $C$DW$12, DW_AT_location[DW_OP_addr gpioPinTable]
     107                            .dwattr $C$DW$12, DW_AT_decl_file("../Application/LaunchPad/board_gpio.c")
     108                            .dwattr $C$DW$12, DW_AT_decl_line(0x50)
     109                            .dwattr $C$DW$12, DW_AT_decl_column(0x13)
     110                    
TI ARM Assembler PC v18.1.3 Wed Dec 12 17:41:55 2018

Tools Copyright (c) 1996-2017 Texas Instruments Incorporated
C:\Users\THE_WO~1\AppData\Local\Temp\{050965DE-8841-4571-8C2C-9ACC23B5DBE4} PAGE    3

     111          0000000C! gpioPinState:   .set    ||$O1$$||+12
     112                    $C$DW$13        .dwtag  DW_TAG_variable
     113                            .dwattr $C$DW$13, DW_AT_name("gpioPinState")
     114                            .dwattr $C$DW$13, DW_AT_TI_symbol_name("gpioPinState")
     115                            .dwattr $C$DW$13, DW_AT_type(*$C$DW$T$207)
     116                            .dwattr $C$DW$13, DW_AT_location[DW_OP_addr gpioPinState]
     117                            .dwattr $C$DW$13, DW_AT_decl_file("../Application/LaunchPad/board_gpio.c")
     118                            .dwattr $C$DW$13, DW_AT_decl_line(0x65)
     119                            .dwattr $C$DW$13, DW_AT_decl_column(0x12)
     120                    
     121                    ;       C:\ti\ccsv8\tools\compiler\ti-cgt-arm_18.1.3.LTS\bin\armopt.exe C:/Users/The_Wonderer/Google D
     122 00000000                   .sect   ".text:Board_Gpio_initialize"
     123                            .clink
     124                            .thumbfunc Board_Gpio_initialize
     125 00000000                   .thumb
     126                            .global Board_Gpio_initialize
     127                    
     128                    $C$DW$14        .dwtag  DW_TAG_subprogram
     129                            .dwattr $C$DW$14, DW_AT_name("Board_Gpio_initialize")
     130                            .dwattr $C$DW$14, DW_AT_low_pc(Board_Gpio_initialize)
     131                            .dwattr $C$DW$14, DW_AT_high_pc(0x00)
     132                            .dwattr $C$DW$14, DW_AT_TI_symbol_name("Board_Gpio_initialize")
     133                            .dwattr $C$DW$14, DW_AT_external
     134                            .dwattr $C$DW$14, DW_AT_TI_begin_file("../Application/LaunchPad/board_gpio.c")
     135                            .dwattr $C$DW$14, DW_AT_TI_begin_line(0x77)
     136                            .dwattr $C$DW$14, DW_AT_TI_begin_column(0x06)
     137                            .dwattr $C$DW$14, DW_AT_decl_file("../Application/LaunchPad/board_gpio.c")
     138                            .dwattr $C$DW$14, DW_AT_decl_line(0x77)
     139                            .dwattr $C$DW$14, DW_AT_decl_column(0x06)
     140                            .dwattr $C$DW$14, DW_AT_TI_max_frame_size(0x08)
     141                            .dwpsn  file "../Application/LaunchPad/board_gpio.c",line 120,column 1,is_stmt,address Board_G
     142                    
     143                            .dwfde $C$DW$CIE, Board_Gpio_initialize
     144                    
     145                    ;*****************************************************************************
     146                    ;* FUNCTION NAME: Board_Gpio_initialize                                      *
     147                    ;*                                                                           *
     148                    ;*   Regs Modified     : A1,A2,A3,A4,V1,V9,SP,LR,SR                          *
     149                    ;*   Regs Used         : A1,A2,A3,A4,V1,V9,SP,LR,SR                          *
     150                    ;*   Local Frame Size  : 0 Args + 0 Auto + 8 Save = 8 byte                   *
     151                    ;*****************************************************************************
     152 00000000           Board_Gpio_initialize:
     153                    ;* --------------------------------------------------------------------------*
     154                    ;* V1    assigned to $O$C1
     155                            .dwcfi  cfa_offset, 0
     156 00000000 B510              PUSH      {V1, LR}              ; [DPU_V7M3_PIPE]  ; [ORIG 16-BIT INS]
     157                            .dwcfi  cfa_offset, 8
     158                            .dwcfi  save_reg_to_mem, 14, -4
     159                            .dwcfi  save_reg_to_mem, 4, -8
     160                            .dwpsn  file "../Application/LaunchPad/board_gpio.c",line 122,column 5,is_stmt,isa 1
     161 00000002 4C04              LDR       V1, $C$CON1           ; [DPU_V7M3_PIPE] |122|  ; [ORIG 16-BIT INS]
     162 00000004 000CF104          ADD       A1, V1, #12           ; [DPU_V7M3_PIPE]  ; [KEEP 32-BIT INS]
     163 00000008 1D21              ADDS      A2, V1, #4            ; [DPU_V7M3_PIPE]  ; [ORIG 16-BIT INS]
     164                    $C$DW$15        .dwtag  DW_TAG_TI_branch
     165                            .dwattr $C$DW$15, DW_AT_low_pc(0x00)
TI ARM Assembler PC v18.1.3 Wed Dec 12 17:41:55 2018

Tools Copyright (c) 1996-2017 Texas Instruments Incorporated
C:\Users\THE_WO~1\AppData\Local\Temp\{050965DE-8841-4571-8C2C-9ACC23B5DBE4} PAGE    4

     166                            .dwattr $C$DW$15, DW_AT_name("PIN_open")
     167                            .dwattr $C$DW$15, DW_AT_TI_call
     168                    
     169 0000000a FFFEF7FF!         BL        PIN_open              ; [DPU_V7M3_PIPE] |122|  ; [KEEP 32-BIT INS]
     170                            ; CALL OCCURS {PIN_open }        ; [] |122| 
     171 0000000e 6020              STR       A1, [V1, #0]          ; [DPU_V7M3_PIPE] |122|  ; [ORIG 16-BIT INS]
     172                    $C$DW$16        .dwtag  DW_TAG_TI_branch
     173                            .dwattr $C$DW$16, DW_AT_low_pc(0x00)
     174                            .dwattr $C$DW$16, DW_AT_TI_return
     175                    
     176 00000010 BD10              POP       {V1, PC}              ; [DPU_V7M3_PIPE]  ; [ORIG 16-BIT INS]
     177                            .dwcfi  cfa_offset, 0
     178                            .dwcfi  restore_reg, 4
     179                            ; BRANCH OCCURS                  ; [] 
     180                            .dwattr $C$DW$14, DW_AT_TI_end_file("../Application/LaunchPad/board_gpio.c")
     181                            .dwattr $C$DW$14, DW_AT_TI_end_line(0x7b)
     182                            .dwattr $C$DW$14, DW_AT_TI_end_column(0x01)
     183                            .dwendentry
     184                            .dwendtag $C$DW$14
     185                    
     186 00000000                   .sect   ".text:Board_Gpio_control"
     187                            .clink
     188                            .thumbfunc Board_Gpio_control
     189 00000000                   .thumb
     190                            .global Board_Gpio_control
     191                    
     192                    $C$DW$17        .dwtag  DW_TAG_subprogram
     193                            .dwattr $C$DW$17, DW_AT_name("Board_Gpio_control")
     194                            .dwattr $C$DW$17, DW_AT_low_pc(Board_Gpio_control)
     195                            .dwattr $C$DW$17, DW_AT_high_pc(0x00)
     196                            .dwattr $C$DW$17, DW_AT_TI_symbol_name("Board_Gpio_control")
     197                            .dwattr $C$DW$17, DW_AT_external
     198                            .dwattr $C$DW$17, DW_AT_TI_begin_file("../Application/LaunchPad/board_gpio.c")
     199                            .dwattr $C$DW$17, DW_AT_TI_begin_line(0x82)
     200                            .dwattr $C$DW$17, DW_AT_TI_begin_column(0x06)
     201                            .dwattr $C$DW$17, DW_AT_decl_file("../Application/LaunchPad/board_gpio.c")
     202                            .dwattr $C$DW$17, DW_AT_decl_line(0x82)
     203                            .dwattr $C$DW$17, DW_AT_decl_column(0x06)
     204                            .dwattr $C$DW$17, DW_AT_TI_max_frame_size(0x10)
     205                            .dwpsn  file "../Application/LaunchPad/board_gpio.c",line 131,column 1,is_stmt,address Board_G
     206                    
     207                            .dwfde $C$DW$CIE, Board_Gpio_control
     208                    $C$DW$18        .dwtag  DW_TAG_formal_parameter
     209                            .dwattr $C$DW$18, DW_AT_name("gpio")
     210                            .dwattr $C$DW$18, DW_AT_TI_symbol_name("gpio")
     211                            .dwattr $C$DW$18, DW_AT_type(*$C$DW$T$10)
     212                            .dwattr $C$DW$18, DW_AT_location[DW_OP_reg0]
     213                    
     214                    $C$DW$19        .dwtag  DW_TAG_formal_parameter
     215                            .dwattr $C$DW$19, DW_AT_name("value")
     216                            .dwattr $C$DW$19, DW_AT_TI_symbol_name("value")
     217                            .dwattr $C$DW$19, DW_AT_type(*$C$DW$T$141)
     218                            .dwattr $C$DW$19, DW_AT_location[DW_OP_reg1]
     219                    
     220                    
TI ARM Assembler PC v18.1.3 Wed Dec 12 17:41:55 2018

Tools Copyright (c) 1996-2017 Texas Instruments Incorporated
C:\Users\THE_WO~1\AppData\Local\Temp\{050965DE-8841-4571-8C2C-9ACC23B5DBE4} PAGE    5

     221                    ;*****************************************************************************
     222                    ;* FUNCTION NAME: Board_Gpio_control                                         *
     223                    ;*                                                                           *
     224                    ;*   Regs Modified     : A1,A2,A3,A4,V1,V2,V3,V9,SP,LR,SR                    *
     225                    ;*   Regs Used         : A1,A2,A3,A4,V1,V2,V3,V9,SP,LR,SR                    *
     226                    ;*   Local Frame Size  : 0 Args + 0 Auto + 16 Save = 16 byte                 *
     227                    ;*****************************************************************************
     228                    Board_Gpio_control:
     229                    ;* --------------------------------------------------------------------------*
     230                    ;* V1    assigned to $O$C1
     231                    ;* V1    assigned to $O$K4
     232                    ;* A1    assigned to gpio
     233                    $C$DW$20        .dwtag  DW_TAG_variable
     234                            .dwattr $C$DW$20, DW_AT_name("gpio")
     235                            .dwattr $C$DW$20, DW_AT_TI_symbol_name("gpio")
     236                            .dwattr $C$DW$20, DW_AT_type(*$C$DW$T$491)
     237                            .dwattr $C$DW$20, DW_AT_location[DW_OP_reg0]
     238                    
     239                    ;* V2    assigned to value
     240                    $C$DW$21        .dwtag  DW_TAG_variable
     241                            .dwattr $C$DW$21, DW_AT_name("value")
     242                            .dwattr $C$DW$21, DW_AT_TI_symbol_name("value")
     243                            .dwattr $C$DW$21, DW_AT_type(*$C$DW$T$918)
     244                            .dwattr $C$DW$21, DW_AT_location[DW_OP_reg5]
     245                    
     246                    ;* V3    assigned to key
     247                    $C$DW$22        .dwtag  DW_TAG_variable
     248                            .dwattr $C$DW$22, DW_AT_name("key")
     249                            .dwattr $C$DW$22, DW_AT_TI_symbol_name("key")
     250                            .dwattr $C$DW$22, DW_AT_type(*$C$DW$T$141)
     251                            .dwattr $C$DW$22, DW_AT_location[DW_OP_reg6]
     252                    
     253                            .dwcfi  cfa_offset, 0
     254 00000000 B570              PUSH      {V1, V2, V3, LR}      ; [DPU_V7M3_PIPE]  ; [ORIG 16-BIT INS]
     255                            .dwcfi  cfa_offset, 16
     256                            .dwcfi  save_reg_to_mem, 14, -4
     257                            .dwcfi  save_reg_to_mem, 6, -8
     258                            .dwcfi  save_reg_to_mem, 5, -12
     259                            .dwcfi  save_reg_to_mem, 4, -16
     260                            .dwpsn  file "../Application/LaunchPad/board_gpio.c",line 136,column 5,is_stmt,isa 1
     261 00000002 4C08              LDR       V1, $C$CON5           ; [DPU_V7M3_PIPE] |136|  ; [ORIG 16-BIT INS]
     262                            .dwpsn  file "../Application/LaunchPad/board_gpio.c",line 131,column 1,is_stmt,isa 1
     263 00000004 460D              MOV       V2, A2                ; [DPU_V7M3_PIPE] |131|  ; [ORIG 16-BIT INS]
     264                            .dwpsn  file "../Application/LaunchPad/board_gpio.c",line 136,column 5,is_stmt,isa 1
     265 00000006 6821              LDR       A2, [V1, #0]          ; [DPU_V7M3_PIPE] |136|  ; [ORIG 16-BIT INS]
     266 00000008 B159              CBZ       A2, ||$C$L1||         ; []  ; [ORIG 16-BIT INS]
     267                            ; BRANCHCC OCCURS {||$C$L1||}    ; [] |136| 
     268                    ;* --------------------------------------------------------------------------*
     269 0000000a B950              CBNZ      A1, ||$C$L1||         ; []  ; [ORIG 16-BIT INS]
     270                            .dwpsn  file "../Application/LaunchPad/board_gpio.c",line 142,column 5,is_stmt,isa 1
     271                            ; BRANCHCC OCCURS {||$C$L1||}    ; [] |142| 
     272                    ;* --------------------------------------------------------------------------*
     273                            .dwpsn  file "../Application/LaunchPad/board_gpio.c",line 144,column 9,is_stmt,isa 1
     274                    $C$DW$23        .dwtag  DW_TAG_TI_branch
     275                            .dwattr $C$DW$23, DW_AT_low_pc(0x00)
TI ARM Assembler PC v18.1.3 Wed Dec 12 17:41:55 2018

Tools Copyright (c) 1996-2017 Texas Instruments Incorporated
C:\Users\THE_WO~1\AppData\Local\Temp\{050965DE-8841-4571-8C2C-9ACC23B5DBE4} PAGE    6

     276                            .dwattr $C$DW$23, DW_AT_name("HwiP_disable")
     277                            .dwattr $C$DW$23, DW_AT_TI_call
     278                    
     279 0000000c FFFEF7FF!         BL        HwiP_disable          ; [DPU_V7M3_PIPE] |144|  ; [KEEP 32-BIT INS]
     280                            ; CALL OCCURS {HwiP_disable }    ; [] |144| 
     281 00000010 4606              MOV       V3, A1                ; [DPU_V7M3_PIPE] |144|  ; [ORIG 16-BIT INS]
     282                            .dwpsn  file "../Application/LaunchPad/board_gpio.c",line 145,column 9,is_stmt,isa 1
     283 00000012 6820              LDR       A1, [V1, #0]          ; [DPU_V7M3_PIPE] |145|  ; [ORIG 16-BIT INS]
     284 00000014 2101              MOVS      A2, #1                ; [DPU_V7M3_PIPE] |145|  ; [ORIG 16-BIT INS]
     285 00000016 462A              MOV       A3, V2                ; [DPU_V7M3_PIPE] |145|  ; [ORIG 16-BIT INS]
     286                    $C$DW$24        .dwtag  DW_TAG_TI_branch
     287                            .dwattr $C$DW$24, DW_AT_low_pc(0x00)
     288                            .dwattr $C$DW$24, DW_AT_name("PIN_setOutputValue")
     289                            .dwattr $C$DW$24, DW_AT_TI_call
     290                    
     291 00000018 FFFEF7FF!         BL        PIN_setOutputValue    ; [DPU_V7M3_PIPE] |145|  ; [KEEP 32-BIT INS]
     292                            ; CALL OCCURS {PIN_setOutputValue }  ; [] |145| 
     293                            .dwpsn  file "../Application/LaunchPad/board_gpio.c",line 146,column 9,is_stmt,isa 1
     294 0000001c 4630              MOV       A1, V3                ; [DPU_V7M3_PIPE] |146|  ; [ORIG 16-BIT INS]
     295                    $C$DW$25        .dwtag  DW_TAG_TI_branch
     296                            .dwattr $C$DW$25, DW_AT_low_pc(0x00)
     297                            .dwattr $C$DW$25, DW_AT_name("HwiP_restore")
     298                            .dwattr $C$DW$25, DW_AT_TI_call
     299                    
     300 0000001e FFFEF7FF!         BL        HwiP_restore          ; [DPU_V7M3_PIPE] |146|  ; [KEEP 32-BIT INS]
     301                            ; CALL OCCURS {HwiP_restore }    ; [] |146| 
     302                    ;* --------------------------------------------------------------------------*
     303                    ||$C$L1||:    
     304                    $C$DW$26        .dwtag  DW_TAG_TI_branch
     305                            .dwattr $C$DW$26, DW_AT_low_pc(0x00)
     306                            .dwattr $C$DW$26, DW_AT_TI_return
     307                    
     308 00000022 BD70              POP       {V1, V2, V3, PC}      ; [DPU_V7M3_PIPE]  ; [ORIG 16-BIT INS]
     309                            .dwcfi  cfa_offset, 0
     310                            .dwcfi  restore_reg, 6
     311                            .dwcfi  restore_reg, 5
     312                            .dwcfi  restore_reg, 4
     313                            ; BRANCH OCCURS                  ; [] 
     314                            .dwattr $C$DW$17, DW_AT_TI_end_file("../Application/LaunchPad/board_gpio.c")
     315                            .dwattr $C$DW$17, DW_AT_TI_end_line(0xa3)
     316                            .dwattr $C$DW$17, DW_AT_TI_end_column(0x01)
     317                            .dwendentry
     318                            .dwendtag $C$DW$17
     319                    
     320                    ;******************************************************************************
     321                    ;* CONSTANT TABLE                                                             *
     322                    ;******************************************************************************
     323 00000012                   .sect   ".text:Board_Gpio_initialize"
     324                            .align  4
     325 00000012 000046C0! ||$C$CON1||:    .bits   ||$O1$$||,32
         00000016 00000000 
     326                    ;******************************************************************************
     327                    ;* CONSTANT TABLE                                                             *
     328                    ;******************************************************************************
     329 00000024                   .sect   ".text:Board_Gpio_control"
TI ARM Assembler PC v18.1.3 Wed Dec 12 17:41:55 2018

Tools Copyright (c) 1996-2017 Texas Instruments Incorporated
C:\Users\THE_WO~1\AppData\Local\Temp\{050965DE-8841-4571-8C2C-9ACC23B5DBE4} PAGE    7

     330                            .align  4
     331 00000024 00000000! ||$C$CON5||:    .bits   ||$O1$$||,32
     332                    ;*****************************************************************************
     333                    ;* UNDEFINED EXTERNAL REFERENCES                                             *
     334                    ;*****************************************************************************
     335                            .global PIN_open
     336                            .global HwiP_disable
     337                            .global PIN_setOutputValue
     338                            .global HwiP_restore
     339                    
     340                    ;******************************************************************************
     341                    ;* BUILD ATTRIBUTES                                                           *
     342                    ;******************************************************************************
     343                            .battr "aeabi", Tag_File, 1, Tag_ABI_PCS_wchar_t(2)
     344                            .battr "aeabi", Tag_File, 1, Tag_ABI_FP_rounding(0)
     345                            .battr "aeabi", Tag_File, 1, Tag_ABI_FP_denormal(0)
     346                            .battr "aeabi", Tag_File, 1, Tag_ABI_FP_exceptions(0)
     347                            .battr "aeabi", Tag_File, 1, Tag_ABI_FP_number_model(1)
     348                            .battr "aeabi", Tag_File, 1, Tag_ABI_enum_size(1)
     349                            .battr "aeabi", Tag_File, 1, Tag_ABI_optimization_goals(0)
     350                            .battr "aeabi", Tag_File, 1, Tag_ABI_FP_optimization_goals(0)
     351                            .battr "TI", Tag_File, 1, Tag_Bitfield_layout(2)
     352                            .battr "aeabi", Tag_File, 1, Tag_ABI_VFP_args(3)
     353                            .battr "TI", Tag_File, 1, Tag_FP_interface(1)
     354                    
     355                    ;******************************************************************************
     356                    ;* TYPE INFORMATION                                                           *
     357                    ;******************************************************************************
     358                    
     359                    $C$DW$T$484     .dwtag  DW_TAG_enumeration_type
     360                            .dwattr $C$DW$T$484, DW_AT_byte_size(0x01)
     361                    $C$DW$27        .dwtag  DW_TAG_enumerator
     362                            .dwattr $C$DW$27, DW_AT_name("PIN_SUCCESS")
     363                            .dwattr $C$DW$27, DW_AT_const_value(0x00)
     364                            .dwattr $C$DW$27, DW_AT_decl_file("C:/ti/simplelink_cc13x0_sdk_2_30_00_20/source/ti/drivers/PI
     365                            .dwattr $C$DW$27, DW_AT_decl_line(0x2cd)
     366                            .dwattr $C$DW$27, DW_AT_decl_column(0x05)
     367                    
     368                    $C$DW$28        .dwtag  DW_TAG_enumerator
     369                            .dwattr $C$DW$28, DW_AT_name("PIN_ALREADY_ALLOCATED")
     370                            .dwattr $C$DW$28, DW_AT_const_value(0x01)
     371                            .dwattr $C$DW$28, DW_AT_decl_file("C:/ti/simplelink_cc13x0_sdk_2_30_00_20/source/ti/drivers/PI
     372                            .dwattr $C$DW$28, DW_AT_decl_line(0x2ce)
     373                            .dwattr $C$DW$28, DW_AT_decl_column(0x05)
     374                    
     375                    $C$DW$29        .dwtag  DW_TAG_enumerator
     376                            .dwattr $C$DW$29, DW_AT_name("PIN_NO_ACCESS")
     377                            .dwattr $C$DW$29, DW_AT_const_value(0x02)
     378                            .dwattr $C$DW$29, DW_AT_decl_file("C:/ti/simplelink_cc13x0_sdk_2_30_00_20/source/ti/drivers/PI
     379                            .dwattr $C$DW$29, DW_AT_decl_line(0x2cf)
     380                            .dwattr $C$DW$29, DW_AT_decl_column(0x05)
     381                    
     382                    $C$DW$30        .dwtag  DW_TAG_enumerator
     383                            .dwattr $C$DW$30, DW_AT_name("PIN_UNSUPPORTED")
     384                            .dwattr $C$DW$30, DW_AT_const_value(0x03)
TI ARM Assembler PC v18.1.3 Wed Dec 12 17:41:55 2018

Tools Copyright (c) 1996-2017 Texas Instruments Incorporated
C:\Users\THE_WO~1\AppData\Local\Temp\{050965DE-8841-4571-8C2C-9ACC23B5DBE4} PAGE    8

     385                            .dwattr $C$DW$30, DW_AT_decl_file("C:/ti/simplelink_cc13x0_sdk_2_30_00_20/source/ti/drivers/PI
     386                            .dwattr $C$DW$30, DW_AT_decl_line(0x2d0)
     387                            .dwattr $C$DW$30, DW_AT_decl_column(0x05)
     388                    
     389                            .dwattr $C$DW$T$484, DW_AT_decl_file("C:/ti/simplelink_cc13x0_sdk_2_30_00_20/source/ti/drivers
     390                            .dwattr $C$DW$T$484, DW_AT_decl_line(0x2cc)
     391                            .dwattr $C$DW$T$484, DW_AT_decl_column(0x0e)
     392                            .dwendtag $C$DW$T$484
     393                    
     394                    $C$DW$T$485     .dwtag  DW_TAG_typedef
     395                            .dwattr $C$DW$T$485, DW_AT_name("PIN_Status")
     396                            .dwattr $C$DW$T$485, DW_AT_type(*$C$DW$T$484)
     397                            .dwattr $C$DW$T$485, DW_AT_language(DW_LANG_C)
     398                            .dwattr $C$DW$T$485, DW_AT_decl_file("C:/ti/simplelink_cc13x0_sdk_2_30_00_20/source/ti/drivers
     399                            .dwattr $C$DW$T$485, DW_AT_decl_line(0x2d1)
     400                            .dwattr $C$DW$T$485, DW_AT_decl_column(0x03)
     401                    
     402                    
     403                    $C$DW$T$489     .dwtag  DW_TAG_enumeration_type
     404                            .dwattr $C$DW$T$489, DW_AT_byte_size(0x01)
     405                    $C$DW$31        .dwtag  DW_TAG_enumerator
     406                            .dwattr $C$DW$31, DW_AT_name("board_rfSwitch_select")
     407                            .dwattr $C$DW$31, DW_AT_const_value(0x00)
     408                            .dwattr $C$DW$31, DW_AT_decl_file("..\Application\LaunchPad\board_gpio.h")
     409                            .dwattr $C$DW$31, DW_AT_decl_line(0x51)
     410                            .dwattr $C$DW$31, DW_AT_decl_column(0x05)
     411                    
     412                    $C$DW$32        .dwtag  DW_TAG_enumerator
     413                            .dwattr $C$DW$32, DW_AT_name("NO_OF_GPIOS")
     414                            .dwattr $C$DW$32, DW_AT_const_value(0x01)
     415                            .dwattr $C$DW$32, DW_AT_decl_file("..\Application\LaunchPad\board_gpio.h")
     416                            .dwattr $C$DW$32, DW_AT_decl_line(0x58)
     417                            .dwattr $C$DW$32, DW_AT_decl_column(0x05)
     418                    
     419                            .dwattr $C$DW$T$489, DW_AT_decl_file("..\Application\LaunchPad\board_gpio.h")
     420                            .dwattr $C$DW$T$489, DW_AT_decl_line(0x4f)
     421                            .dwattr $C$DW$T$489, DW_AT_decl_column(0x01)
     422                            .dwendtag $C$DW$T$489
     423                    
     424                    $C$DW$T$490     .dwtag  DW_TAG_typedef
     425                            .dwattr $C$DW$T$490, DW_AT_name("board_gpio_type")
     426                            .dwattr $C$DW$T$490, DW_AT_type(*$C$DW$T$489)
     427                            .dwattr $C$DW$T$490, DW_AT_language(DW_LANG_C)
     428                            .dwattr $C$DW$T$490, DW_AT_decl_file("..\Application\LaunchPad\board_gpio.h")
     429                            .dwattr $C$DW$T$490, DW_AT_decl_line(0x59)
     430                            .dwattr $C$DW$T$490, DW_AT_decl_column(0x03)
     431                    
     432                    $C$DW$T$491     .dwtag  DW_TAG_const_type
     433                            .dwattr $C$DW$T$491, DW_AT_type(*$C$DW$T$490)
     434                    
     435                    
     436                    $C$DW$T$139     .dwtag  DW_TAG_structure_type
     437                            .dwattr $C$DW$T$139, DW_AT_byte_size(0x10)
     438                    $C$DW$33        .dwtag  DW_TAG_member
     439                            .dwattr $C$DW$33, DW_AT_type(*$C$DW$T$14)
TI ARM Assembler PC v18.1.3 Wed Dec 12 17:41:55 2018

Tools Copyright (c) 1996-2017 Texas Instruments Incorporated
C:\Users\THE_WO~1\AppData\Local\Temp\{050965DE-8841-4571-8C2C-9ACC23B5DBE4} PAGE    9

     440                            .dwattr $C$DW$33, DW_AT_name("__max_align1")
     441                            .dwattr $C$DW$33, DW_AT_TI_symbol_name("__max_align1")
     442                            .dwattr $C$DW$33, DW_AT_data_member_location[DW_OP_plus_uconst 0x0]
     443                            .dwattr $C$DW$33, DW_AT_accessibility(DW_ACCESS_public)
     444                            .dwattr $C$DW$33, DW_AT_decl_file("C:/ti/ccsv8/tools/compiler/ti-cgt-arm_18.1.3.LTS/include/sy
     445                            .dwattr $C$DW$33, DW_AT_decl_line(0x70)
     446                            .dwattr $C$DW$33, DW_AT_decl_column(0x0c)
     447                    
     448                    $C$DW$34        .dwtag  DW_TAG_member
     449                            .dwattr $C$DW$34, DW_AT_type(*$C$DW$T$18)
     450                            .dwattr $C$DW$34, DW_AT_name("__max_align2")
     451                            .dwattr $C$DW$34, DW_AT_TI_symbol_name("__max_align2")
     452                            .dwattr $C$DW$34, DW_AT_data_member_location[DW_OP_plus_uconst 0x8]
     453                            .dwattr $C$DW$34, DW_AT_accessibility(DW_ACCESS_public)
     454                            .dwattr $C$DW$34, DW_AT_decl_file("C:/ti/ccsv8/tools/compiler/ti-cgt-arm_18.1.3.LTS/include/sy
     455                            .dwattr $C$DW$34, DW_AT_decl_line(0x71)
     456                            .dwattr $C$DW$34, DW_AT_decl_column(0x0e)
     457                    
     458                            .dwattr $C$DW$T$139, DW_AT_decl_file("C:/ti/ccsv8/tools/compiler/ti-cgt-arm_18.1.3.LTS/include
     459                            .dwattr $C$DW$T$139, DW_AT_decl_line(0x6f)
     460                            .dwattr $C$DW$T$139, DW_AT_decl_column(0x10)
     461                            .dwendtag $C$DW$T$139
     462                    
     463                    $C$DW$T$492     .dwtag  DW_TAG_typedef
     464                            .dwattr $C$DW$T$492, DW_AT_name("__max_align_t")
     465                            .dwattr $C$DW$T$492, DW_AT_type(*$C$DW$T$139)
     466                            .dwattr $C$DW$T$492, DW_AT_language(DW_LANG_C)
     467                            .dwattr $C$DW$T$492, DW_AT_decl_file("C:/ti/ccsv8/tools/compiler/ti-cgt-arm_18.1.3.LTS/include
     468                            .dwattr $C$DW$T$492, DW_AT_decl_line(0x72)
     469                            .dwattr $C$DW$T$492, DW_AT_decl_column(0x03)
     470                    
     471                    
     472                    $C$DW$T$184     .dwtag  DW_TAG_structure_type
     473                            .dwattr $C$DW$T$184, DW_AT_byte_size(0x4c)
     474                    $C$DW$35        .dwtag  DW_TAG_member
     475                            .dwattr $C$DW$35, DW_AT_type(*$C$DW$T$147)
     476                            .dwattr $C$DW$35, DW_AT_name("Crc32")
     477                            .dwattr $C$DW$35, DW_AT_TI_symbol_name("Crc32")
     478                            .dwattr $C$DW$35, DW_AT_data_member_location[DW_OP_plus_uconst 0x0]
     479                            .dwattr $C$DW$35, DW_AT_accessibility(DW_ACCESS_public)
     480                            .dwattr $C$DW$35, DW_AT_decl_file("C:\ti\simplelink_cc13x0_sdk_2_30_00_20\source\ti\devices\cc
     481                            .dwattr $C$DW$35, DW_AT_decl_line(0x76)
     482                            .dwattr $C$DW$35, DW_AT_decl_column(0x25)
     483                    
     484                    $C$DW$36        .dwtag  DW_TAG_member
     485                            .dwattr $C$DW$36, DW_AT_type(*$C$DW$T$150)
     486                            .dwattr $C$DW$36, DW_AT_name("FlashGetSize")
     487                            .dwattr $C$DW$36, DW_AT_TI_symbol_name("FlashGetSize")
     488                            .dwattr $C$DW$36, DW_AT_data_member_location[DW_OP_plus_uconst 0x4]
     489                            .dwattr $C$DW$36, DW_AT_accessibility(DW_ACCESS_public)
     490                            .dwattr $C$DW$36, DW_AT_decl_file("C:\ti\simplelink_cc13x0_sdk_2_30_00_20\source\ti\devices\cc
     491                            .dwattr $C$DW$36, DW_AT_decl_line(0x77)
     492                            .dwattr $C$DW$36, DW_AT_decl_column(0x25)
     493                    
     494                    $C$DW$37        .dwtag  DW_TAG_member
TI ARM Assembler PC v18.1.3 Wed Dec 12 17:41:55 2018

Tools Copyright (c) 1996-2017 Texas Instruments Incorporated
C:\Users\THE_WO~1\AppData\Local\Temp\{050965DE-8841-4571-8C2C-9ACC23B5DBE4} PAGE   10

     495                            .dwattr $C$DW$37, DW_AT_type(*$C$DW$T$151)
     496                            .dwattr $C$DW$37, DW_AT_name("GetChipId")
     497                            .dwattr $C$DW$37, DW_AT_TI_symbol_name("GetChipId")
     498                            .dwattr $C$DW$37, DW_AT_data_member_location[DW_OP_plus_uconst 0x8]
     499                            .dwattr $C$DW$37, DW_AT_accessibility(DW_ACCESS_public)
     500                            .dwattr $C$DW$37, DW_AT_decl_file("C:\ti\simplelink_cc13x0_sdk_2_30_00_20\source\ti\devices\cc
     501                            .dwattr $C$DW$37, DW_AT_decl_line(0x78)
     502                            .dwattr $C$DW$37, DW_AT_decl_column(0x25)
     503                    
     504                    $C$DW$38        .dwtag  DW_TAG_member
     505                            .dwattr $C$DW$38, DW_AT_type(*$C$DW$T$154)
     506                            .dwattr $C$DW$38, DW_AT_name("ReservedLocation1")
     507                            .dwattr $C$DW$38, DW_AT_TI_symbol_name("ReservedLocation1")
     508                            .dwattr $C$DW$38, DW_AT_data_member_location[DW_OP_plus_uconst 0xc]
     509                            .dwattr $C$DW$38, DW_AT_accessibility(DW_ACCESS_public)
     510                            .dwattr $C$DW$38, DW_AT_decl_file("C:\ti\simplelink_cc13x0_sdk_2_30_00_20\source\ti\devices\cc
     511                            .dwattr $C$DW$38, DW_AT_decl_line(0x79)
     512                            .dwattr $C$DW$38, DW_AT_decl_column(0x25)
     513                    
     514                    $C$DW$39        .dwtag  DW_TAG_member
     515                            .dwattr $C$DW$39, DW_AT_type(*$C$DW$T$155)
     516                            .dwattr $C$DW$39, DW_AT_name("ReservedLocation2")
     517                            .dwattr $C$DW$39, DW_AT_TI_symbol_name("ReservedLocation2")
     518                            .dwattr $C$DW$39, DW_AT_data_member_location[DW_OP_plus_uconst 0x10]
     519                            .dwattr $C$DW$39, DW_AT_accessibility(DW_ACCESS_public)
     520                            .dwattr $C$DW$39, DW_AT_decl_file("C:\ti\simplelink_cc13x0_sdk_2_30_00_20\source\ti\devices\cc
     521                            .dwattr $C$DW$39, DW_AT_decl_line(0x7a)
     522                            .dwattr $C$DW$39, DW_AT_decl_column(0x25)
     523                    
     524                    $C$DW$40        .dwtag  DW_TAG_member
     525                            .dwattr $C$DW$40, DW_AT_type(*$C$DW$T$156)
     526                            .dwattr $C$DW$40, DW_AT_name("ReservedLocation3")
     527                            .dwattr $C$DW$40, DW_AT_TI_symbol_name("ReservedLocation3")
     528                            .dwattr $C$DW$40, DW_AT_data_member_location[DW_OP_plus_uconst 0x14]
     529                            .dwattr $C$DW$40, DW_AT_accessibility(DW_ACCESS_public)
     530                            .dwattr $C$DW$40, DW_AT_decl_file("C:\ti\simplelink_cc13x0_sdk_2_30_00_20\source\ti\devices\cc
     531                            .dwattr $C$DW$40, DW_AT_decl_line(0x7b)
     532                            .dwattr $C$DW$40, DW_AT_decl_column(0x25)
     533                    
     534                    $C$DW$41        .dwtag  DW_TAG_member
     535                            .dwattr $C$DW$41, DW_AT_type(*$C$DW$T$159)
     536                            .dwattr $C$DW$41, DW_AT_name("ResetDevice")
     537                            .dwattr $C$DW$41, DW_AT_TI_symbol_name("ResetDevice")
     538                            .dwattr $C$DW$41, DW_AT_data_member_location[DW_OP_plus_uconst 0x18]
     539                            .dwattr $C$DW$41, DW_AT_accessibility(DW_ACCESS_public)
     540                            .dwattr $C$DW$41, DW_AT_decl_file("C:\ti\simplelink_cc13x0_sdk_2_30_00_20\source\ti\devices\cc
     541                            .dwattr $C$DW$41, DW_AT_decl_line(0x7c)
     542                            .dwattr $C$DW$41, DW_AT_decl_column(0x25)
     543                    
     544                    $C$DW$42        .dwtag  DW_TAG_member
     545                            .dwattr $C$DW$42, DW_AT_type(*$C$DW$T$165)
     546                            .dwattr $C$DW$42, DW_AT_name("Fletcher32")
     547                            .dwattr $C$DW$42, DW_AT_TI_symbol_name("Fletcher32")
     548                            .dwattr $C$DW$42, DW_AT_data_member_location[DW_OP_plus_uconst 0x1c]
     549                            .dwattr $C$DW$42, DW_AT_accessibility(DW_ACCESS_public)
TI ARM Assembler PC v18.1.3 Wed Dec 12 17:41:55 2018

Tools Copyright (c) 1996-2017 Texas Instruments Incorporated
C:\Users\THE_WO~1\AppData\Local\Temp\{050965DE-8841-4571-8C2C-9ACC23B5DBE4} PAGE   11

     550                            .dwattr $C$DW$42, DW_AT_decl_file("C:\ti\simplelink_cc13x0_sdk_2_30_00_20\source\ti\devices\cc
     551                            .dwattr $C$DW$42, DW_AT_decl_line(0x7d)
     552                            .dwattr $C$DW$42, DW_AT_decl_column(0x25)
     553                    
     554                    $C$DW$43        .dwtag  DW_TAG_member
     555                            .dwattr $C$DW$43, DW_AT_type(*$C$DW$T$169)
     556                            .dwattr $C$DW$43, DW_AT_name("MinValue")
     557                            .dwattr $C$DW$43, DW_AT_TI_symbol_name("MinValue")
     558                            .dwattr $C$DW$43, DW_AT_data_member_location[DW_OP_plus_uconst 0x20]
     559                            .dwattr $C$DW$43, DW_AT_accessibility(DW_ACCESS_public)
     560                            .dwattr $C$DW$43, DW_AT_decl_file("C:\ti\simplelink_cc13x0_sdk_2_30_00_20\source\ti\devices\cc
     561                            .dwattr $C$DW$43, DW_AT_decl_line(0x7e)
     562                            .dwattr $C$DW$43, DW_AT_decl_column(0x25)
     563                    
     564                    $C$DW$44        .dwtag  DW_TAG_member
     565                            .dwattr $C$DW$44, DW_AT_type(*$C$DW$T$170)
     566                            .dwattr $C$DW$44, DW_AT_name("MaxValue")
     567                            .dwattr $C$DW$44, DW_AT_TI_symbol_name("MaxValue")
     568                            .dwattr $C$DW$44, DW_AT_data_member_location[DW_OP_plus_uconst 0x24]
     569                            .dwattr $C$DW$44, DW_AT_accessibility(DW_ACCESS_public)
     570                            .dwattr $C$DW$44, DW_AT_decl_file("C:\ti\simplelink_cc13x0_sdk_2_30_00_20\source\ti\devices\cc
     571                            .dwattr $C$DW$44, DW_AT_decl_line(0x7f)
     572                            .dwattr $C$DW$44, DW_AT_decl_column(0x25)
     573                    
     574                    $C$DW$45        .dwtag  DW_TAG_member
     575                            .dwattr $C$DW$45, DW_AT_type(*$C$DW$T$171)
     576                            .dwattr $C$DW$45, DW_AT_name("MeanValue")
     577                            .dwattr $C$DW$45, DW_AT_TI_symbol_name("MeanValue")
     578                            .dwattr $C$DW$45, DW_AT_data_member_location[DW_OP_plus_uconst 0x28]
     579                            .dwattr $C$DW$45, DW_AT_accessibility(DW_ACCESS_public)
     580                            .dwattr $C$DW$45, DW_AT_decl_file("C:\ti\simplelink_cc13x0_sdk_2_30_00_20\source\ti\devices\cc
     581                            .dwattr $C$DW$45, DW_AT_decl_line(0x80)
     582                            .dwattr $C$DW$45, DW_AT_decl_column(0x25)
     583                    
     584                    $C$DW$46        .dwtag  DW_TAG_member
     585                            .dwattr $C$DW$46, DW_AT_type(*$C$DW$T$172)
     586                            .dwattr $C$DW$46, DW_AT_name("StandDeviationValue")
     587                            .dwattr $C$DW$46, DW_AT_TI_symbol_name("StandDeviationValue")
     588                            .dwattr $C$DW$46, DW_AT_data_member_location[DW_OP_plus_uconst 0x2c]
     589                            .dwattr $C$DW$46, DW_AT_accessibility(DW_ACCESS_public)
     590                            .dwattr $C$DW$46, DW_AT_decl_file("C:\ti\simplelink_cc13x0_sdk_2_30_00_20\source\ti\devices\cc
     591                            .dwattr $C$DW$46, DW_AT_decl_line(0x81)
     592                            .dwattr $C$DW$46, DW_AT_decl_column(0x25)
     593                    
     594                    $C$DW$47        .dwtag  DW_TAG_member
     595                            .dwattr $C$DW$47, DW_AT_type(*$C$DW$T$175)
     596                            .dwattr $C$DW$47, DW_AT_name("ReservedLocation4")
     597                            .dwattr $C$DW$47, DW_AT_TI_symbol_name("ReservedLocation4")
     598                            .dwattr $C$DW$47, DW_AT_data_member_location[DW_OP_plus_uconst 0x30]
     599                            .dwattr $C$DW$47, DW_AT_accessibility(DW_ACCESS_public)
     600                            .dwattr $C$DW$47, DW_AT_decl_file("C:\ti\simplelink_cc13x0_sdk_2_30_00_20\source\ti\devices\cc
     601                            .dwattr $C$DW$47, DW_AT_decl_line(0x82)
     602                            .dwattr $C$DW$47, DW_AT_decl_column(0x25)
     603                    
     604                    $C$DW$48        .dwtag  DW_TAG_member
TI ARM Assembler PC v18.1.3 Wed Dec 12 17:41:55 2018

Tools Copyright (c) 1996-2017 Texas Instruments Incorporated
C:\Users\THE_WO~1\AppData\Local\Temp\{050965DE-8841-4571-8C2C-9ACC23B5DBE4} PAGE   12

     605                            .dwattr $C$DW$48, DW_AT_type(*$C$DW$T$176)
     606                            .dwattr $C$DW$48, DW_AT_name("ReservedLocation5")
     607                            .dwattr $C$DW$48, DW_AT_TI_symbol_name("ReservedLocation5")
     608                            .dwattr $C$DW$48, DW_AT_data_member_location[DW_OP_plus_uconst 0x34]
     609                            .dwattr $C$DW$48, DW_AT_accessibility(DW_ACCESS_public)
     610                            .dwattr $C$DW$48, DW_AT_decl_file("C:\ti\simplelink_cc13x0_sdk_2_30_00_20\source\ti\devices\cc
     611                            .dwattr $C$DW$48, DW_AT_decl_line(0x83)
     612                            .dwattr $C$DW$48, DW_AT_decl_column(0x25)
     613                    
     614                    $C$DW$49        .dwtag  DW_TAG_member
     615                            .dwattr $C$DW$49, DW_AT_type(*$C$DW$T$177)
     616                            .dwattr $C$DW$49, DW_AT_name("HFSourceSafeSwitch")
     617                            .dwattr $C$DW$49, DW_AT_TI_symbol_name("HFSourceSafeSwitch")
     618                            .dwattr $C$DW$49, DW_AT_data_member_location[DW_OP_plus_uconst 0x38]
     619                            .dwattr $C$DW$49, DW_AT_accessibility(DW_ACCESS_public)
     620                            .dwattr $C$DW$49, DW_AT_decl_file("C:\ti\simplelink_cc13x0_sdk_2_30_00_20\source\ti\devices\cc
     621                            .dwattr $C$DW$49, DW_AT_decl_line(0x84)
     622                            .dwattr $C$DW$49, DW_AT_decl_column(0x25)
     623                    
     624                    $C$DW$50        .dwtag  DW_TAG_member
     625                            .dwattr $C$DW$50, DW_AT_type(*$C$DW$T$180)
     626                            .dwattr $C$DW$50, DW_AT_name("SelectCompAInput")
     627                            .dwattr $C$DW$50, DW_AT_TI_symbol_name("SelectCompAInput")
     628                            .dwattr $C$DW$50, DW_AT_data_member_location[DW_OP_plus_uconst 0x3c]
     629                            .dwattr $C$DW$50, DW_AT_accessibility(DW_ACCESS_public)
     630                            .dwattr $C$DW$50, DW_AT_decl_file("C:\ti\simplelink_cc13x0_sdk_2_30_00_20\source\ti\devices\cc
     631                            .dwattr $C$DW$50, DW_AT_decl_line(0x85)
     632                            .dwattr $C$DW$50, DW_AT_decl_column(0x25)
     633                    
     634                    $C$DW$51        .dwtag  DW_TAG_member
     635                            .dwattr $C$DW$51, DW_AT_type(*$C$DW$T$181)
     636                            .dwattr $C$DW$51, DW_AT_name("SelectCompARef")
     637                            .dwattr $C$DW$51, DW_AT_TI_symbol_name("SelectCompARef")
     638                            .dwattr $C$DW$51, DW_AT_data_member_location[DW_OP_plus_uconst 0x40]
     639                            .dwattr $C$DW$51, DW_AT_accessibility(DW_ACCESS_public)
     640                            .dwattr $C$DW$51, DW_AT_decl_file("C:\ti\simplelink_cc13x0_sdk_2_30_00_20\source\ti\devices\cc
     641                            .dwattr $C$DW$51, DW_AT_decl_line(0x86)
     642                            .dwattr $C$DW$51, DW_AT_decl_column(0x25)
     643                    
     644                    $C$DW$52        .dwtag  DW_TAG_member
     645                            .dwattr $C$DW$52, DW_AT_type(*$C$DW$T$182)
     646                            .dwattr $C$DW$52, DW_AT_name("SelectADCCompBInput")
     647                            .dwattr $C$DW$52, DW_AT_TI_symbol_name("SelectADCCompBInput")
     648                            .dwattr $C$DW$52, DW_AT_data_member_location[DW_OP_plus_uconst 0x44]
     649                            .dwattr $C$DW$52, DW_AT_accessibility(DW_ACCESS_public)
     650                            .dwattr $C$DW$52, DW_AT_decl_file("C:\ti\simplelink_cc13x0_sdk_2_30_00_20\source\ti\devices\cc
     651                            .dwattr $C$DW$52, DW_AT_decl_line(0x87)
     652                            .dwattr $C$DW$52, DW_AT_decl_column(0x25)
     653                    
     654                    $C$DW$53        .dwtag  DW_TAG_member
     655                            .dwattr $C$DW$53, DW_AT_type(*$C$DW$T$183)
     656                            .dwattr $C$DW$53, DW_AT_name("SelectCompBRef")
     657                            .dwattr $C$DW$53, DW_AT_TI_symbol_name("SelectCompBRef")
     658                            .dwattr $C$DW$53, DW_AT_data_member_location[DW_OP_plus_uconst 0x48]
     659                            .dwattr $C$DW$53, DW_AT_accessibility(DW_ACCESS_public)
TI ARM Assembler PC v18.1.3 Wed Dec 12 17:41:55 2018

Tools Copyright (c) 1996-2017 Texas Instruments Incorporated
C:\Users\THE_WO~1\AppData\Local\Temp\{050965DE-8841-4571-8C2C-9ACC23B5DBE4} PAGE   13

     660                            .dwattr $C$DW$53, DW_AT_decl_file("C:\ti\simplelink_cc13x0_sdk_2_30_00_20\source\ti\devices\cc
     661                            .dwattr $C$DW$53, DW_AT_decl_line(0x88)
     662                            .dwattr $C$DW$53, DW_AT_decl_column(0x25)
     663                    
     664                            .dwattr $C$DW$T$184, DW_AT_decl_file("C:\ti\simplelink_cc13x0_sdk_2_30_00_20\source\ti\devices
     665                            .dwattr $C$DW$T$184, DW_AT_decl_line(0x75)
     666                            .dwattr $C$DW$T$184, DW_AT_decl_column(0x01)
     667                            .dwendtag $C$DW$T$184
     668                    
     669                    $C$DW$T$493     .dwtag  DW_TAG_typedef
     670                            .dwattr $C$DW$T$493, DW_AT_name("HARD_API_T")
     671                            .dwattr $C$DW$T$493, DW_AT_type(*$C$DW$T$184)
     672                            .dwattr $C$DW$T$493, DW_AT_language(DW_LANG_C)
     673                            .dwattr $C$DW$T$493, DW_AT_decl_file("C:\ti\simplelink_cc13x0_sdk_2_30_00_20\source\ti\devices
     674                            .dwattr $C$DW$T$493, DW_AT_decl_line(0x89)
     675                            .dwattr $C$DW$T$493, DW_AT_decl_column(0x03)
     676                    
     677                    
     678                    $C$DW$T$187     .dwtag  DW_TAG_structure_type
     679                            .dwattr $C$DW$T$187, DW_AT_byte_size(0x08)
     680                    $C$DW$54        .dwtag  DW_TAG_member
     681                            .dwattr $C$DW$54, DW_AT_type(*$C$DW$T$10)
     682                            .dwattr $C$DW$54, DW_AT_name("length")
     683                            .dwattr $C$DW$54, DW_AT_TI_symbol_name("length")
     684                            .dwattr $C$DW$54, DW_AT_data_member_location[DW_OP_plus_uconst 0x0]
     685                            .dwattr $C$DW$54, DW_AT_accessibility(DW_ACCESS_public)
     686                            .dwattr $C$DW$54, DW_AT_decl_file("C:/ti/simplelink_cc13x0_sdk_2_30_00_20/kernel/tirtos/packag
     687                            .dwattr $C$DW$54, DW_AT_decl_line(0x165)
     688                            .dwattr $C$DW$54, DW_AT_decl_column(0x16)
     689                    
     690                    $C$DW$55        .dwtag  DW_TAG_member
     691                            .dwattr $C$DW$55, DW_AT_type(*$C$DW$T$186)
     692                            .dwattr $C$DW$55, DW_AT_name("elem")
     693                            .dwattr $C$DW$55, DW_AT_TI_symbol_name("elem")
     694                            .dwattr $C$DW$55, DW_AT_data_member_location[DW_OP_plus_uconst 0x4]
     695                            .dwattr $C$DW$55, DW_AT_accessibility(DW_ACCESS_public)
     696                            .dwattr $C$DW$55, DW_AT_decl_file("C:/ti/simplelink_cc13x0_sdk_2_30_00_20/kernel/tirtos/packag
     697                            .dwattr $C$DW$55, DW_AT_decl_line(0x165)
     698                            .dwattr $C$DW$55, DW_AT_decl_column(0x3a)
     699                    
     700                            .dwattr $C$DW$T$187, DW_AT_decl_file("C:/ti/simplelink_cc13x0_sdk_2_30_00_20/kernel/tirtos/pac
     701                            .dwattr $C$DW$T$187, DW_AT_decl_line(0x165)
     702                            .dwattr $C$DW$T$187, DW_AT_decl_column(0x10)
     703                            .dwendtag $C$DW$T$187
     704                    
     705                    $C$DW$T$494     .dwtag  DW_TAG_typedef
     706                            .dwattr $C$DW$T$494, DW_AT_name("ARRAY1_ti_sysbios_knl_Swi_hooks")
     707                            .dwattr $C$DW$T$494, DW_AT_type(*$C$DW$T$187)
     708                            .dwattr $C$DW$T$494, DW_AT_language(DW_LANG_C)
     709                            .dwattr $C$DW$T$494, DW_AT_decl_file("C:/ti/simplelink_cc13x0_sdk_2_30_00_20/kernel/tirtos/pac
     710                            .dwattr $C$DW$T$494, DW_AT_decl_line(0x165)
     711                            .dwattr $C$DW$T$494, DW_AT_decl_column(0x42)
     712                    
     713                    
     714                    $C$DW$T$190     .dwtag  DW_TAG_structure_type
TI ARM Assembler PC v18.1.3 Wed Dec 12 17:41:55 2018

Tools Copyright (c) 1996-2017 Texas Instruments Incorporated
C:\Users\THE_WO~1\AppData\Local\Temp\{050965DE-8841-4571-8C2C-9ACC23B5DBE4} PAGE   14

     715                            .dwattr $C$DW$T$190, DW_AT_byte_size(0x08)
     716                    $C$DW$56        .dwtag  DW_TAG_member
     717                            .dwattr $C$DW$56, DW_AT_type(*$C$DW$T$10)
     718                            .dwattr $C$DW$56, DW_AT_name("length")
     719                            .dwattr $C$DW$56, DW_AT_TI_symbol_name("length")
     720                            .dwattr $C$DW$56, DW_AT_data_member_location[DW_OP_plus_uconst 0x0]
     721                            .dwattr $C$DW$56, DW_AT_accessibility(DW_ACCESS_public)
     722                            .dwattr $C$DW$56, DW_AT_decl_file("C:/ti/simplelink_cc13x0_sdk_2_30_00_20/kernel/tirtos/packag
     723                            .dwattr $C$DW$56, DW_AT_decl_line(0x166)
     724                            .dwattr $C$DW$56, DW_AT_decl_column(0x16)
     725                    
     726                    $C$DW$57        .dwtag  DW_TAG_member
     727                            .dwattr $C$DW$57, DW_AT_type(*$C$DW$T$189)
     728                            .dwattr $C$DW$57, DW_AT_name("elem")
     729                            .dwattr $C$DW$57, DW_AT_TI_symbol_name("elem")
     730                            .dwattr $C$DW$57, DW_AT_data_member_location[DW_OP_plus_uconst 0x4]
     731                            .dwattr $C$DW$57, DW_AT_accessibility(DW_ACCESS_public)
     732                            .dwattr $C$DW$57, DW_AT_decl_file("C:/ti/simplelink_cc13x0_sdk_2_30_00_20/kernel/tirtos/packag
     733                            .dwattr $C$DW$57, DW_AT_decl_line(0x166)
     734                            .dwattr $C$DW$57, DW_AT_decl_column(0x40)
     735                    
     736                            .dwattr $C$DW$T$190, DW_AT_decl_file("C:/ti/simplelink_cc13x0_sdk_2_30_00_20/kernel/tirtos/pac
     737                            .dwattr $C$DW$T$190, DW_AT_decl_line(0x166)
     738                            .dwattr $C$DW$T$190, DW_AT_decl_column(0x10)
     739                            .dwendtag $C$DW$T$190
     740                    
     741                    $C$DW$T$495     .dwtag  DW_TAG_typedef
     742                            .dwattr $C$DW$T$495, DW_AT_name("CARRAY1_ti_sysbios_knl_Swi_hooks")
     743                            .dwattr $C$DW$T$495, DW_AT_type(*$C$DW$T$190)
     744                            .dwattr $C$DW$T$495, DW_AT_language(DW_LANG_C)
     745                            .dwattr $C$DW$T$495, DW_AT_decl_file("C:/ti/simplelink_cc13x0_sdk_2_30_00_20/kernel/tirtos/pac
     746                            .dwattr $C$DW$T$495, DW_AT_decl_line(0x166)
     747                            .dwattr $C$DW$T$495, DW_AT_decl_column(0x48)
     748                    
     749                    $C$DW$T$496     .dwtag  DW_TAG_typedef
     750                            .dwattr $C$DW$T$496, DW_AT_name("CT__ti_sysbios_knl_Swi_hooks")
     751                            .dwattr $C$DW$T$496, DW_AT_type(*$C$DW$T$495)
     752                            .dwattr $C$DW$T$496, DW_AT_language(DW_LANG_C)
     753                            .dwattr $C$DW$T$496, DW_AT_decl_file("C:/ti/simplelink_cc13x0_sdk_2_30_00_20/kernel/tirtos/pac
     754                            .dwattr $C$DW$T$496, DW_AT_decl_line(0x168)
     755                            .dwattr $C$DW$T$496, DW_AT_decl_column(0x2a)
     756                    
     757                    $C$DW$T$497     .dwtag  DW_TAG_typedef
     758                            .dwattr $C$DW$T$497, DW_AT_name("__TA_ti_sysbios_knl_Swi_hooks")
     759                            .dwattr $C$DW$T$497, DW_AT_type(*$C$DW$T$495)
     760                            .dwattr $C$DW$T$497, DW_AT_language(DW_LANG_C)
     761                            .dwattr $C$DW$T$497, DW_AT_decl_file("C:/ti/simplelink_cc13x0_sdk_2_30_00_20/kernel/tirtos/pac
     762                            .dwattr $C$DW$T$497, DW_AT_decl_line(0x167)
     763                            .dwattr $C$DW$T$497, DW_AT_decl_column(0x2a)
     764                    
     765                    
     766                    $C$DW$T$196     .dwtag  DW_TAG_union_type
     767                            .dwattr $C$DW$T$196, DW_AT_byte_size(0x04)
     768                    $C$DW$58        .dwtag  DW_TAG_member
     769                            .dwattr $C$DW$58, DW_AT_type(*$C$DW$T$191)
TI ARM Assembler PC v18.1.3 Wed Dec 12 17:41:55 2018

Tools Copyright (c) 1996-2017 Texas Instruments Incorporated
C:\Users\THE_WO~1\AppData\Local\Temp\{050965DE-8841-4571-8C2C-9ACC23B5DBE4} PAGE   15

     770                            .dwattr $C$DW$58, DW_AT_name("f")
     771                            .dwattr $C$DW$58, DW_AT_TI_symbol_name("f")
     772                            .dwattr $C$DW$58, DW_AT_data_member_location[DW_OP_plus_uconst 0x0]
     773                            .dwattr $C$DW$58, DW_AT_accessibility(DW_ACCESS_public)
     774                            .dwattr $C$DW$58, DW_AT_decl_file("C:/ti/xdctools_3_50_08_24_core/packages/xdc/std.h")
     775                            .dwattr $C$DW$58, DW_AT_decl_line(0xb7)
     776                            .dwattr $C$DW$58, DW_AT_decl_column(0x0f)
     777                    
     778                    $C$DW$59        .dwtag  DW_TAG_member
     779                            .dwattr $C$DW$59, DW_AT_type(*$C$DW$T$195)
     780                            .dwattr $C$DW$59, DW_AT_name("a")
     781                            .dwattr $C$DW$59, DW_AT_TI_symbol_name("a")
     782                            .dwattr $C$DW$59, DW_AT_data_member_location[DW_OP_plus_uconst 0x0]
     783                            .dwattr $C$DW$59, DW_AT_accessibility(DW_ACCESS_public)
     784                            .dwattr $C$DW$59, DW_AT_decl_file("C:/ti/xdctools_3_50_08_24_core/packages/xdc/std.h")
     785                            .dwattr $C$DW$59, DW_AT_decl_line(0xb8)
     786                            .dwattr $C$DW$59, DW_AT_decl_column(0x0f)
     787                    
     788                            .dwattr $C$DW$T$196, DW_AT_decl_file("C:/ti/xdctools_3_50_08_24_core/packages/xdc/std.h")
     789                            .dwattr $C$DW$T$196, DW_AT_decl_line(0xb6)
     790                            .dwattr $C$DW$T$196, DW_AT_decl_column(0x0f)
     791                            .dwendtag $C$DW$T$196
     792                    
     793                    $C$DW$T$498     .dwtag  DW_TAG_typedef
     794                            .dwattr $C$DW$T$498, DW_AT_name("xdc_FloatData")
     795                            .dwattr $C$DW$T$498, DW_AT_type(*$C$DW$T$196)
     796                            .dwattr $C$DW$T$498, DW_AT_language(DW_LANG_C)
     797                            .dwattr $C$DW$T$498, DW_AT_decl_file("C:/ti/xdctools_3_50_08_24_core/packages/xdc/std.h")
     798                            .dwattr $C$DW$T$498, DW_AT_decl_line(0xb9)
     799                            .dwattr $C$DW$T$498, DW_AT_decl_column(0x03)
     800                    
     801                    
     802                    $C$DW$T$199     .dwtag  DW_TAG_structure_type
     803                            .dwattr $C$DW$T$199, DW_AT_name(".ggroup1")
     804                            .dwattr $C$DW$T$199, DW_AT_byte_size(0x18)
     805                    $C$DW$60        .dwtag  DW_TAG_member
     806                            .dwattr $C$DW$60, DW_AT_type(*$C$DW$T$197)
     807                            .dwattr $C$DW$60, DW_AT_name("gpioPinHandle")
     808                            .dwattr $C$DW$60, DW_AT_TI_symbol_name("gpioPinHandle")
     809                            .dwattr $C$DW$60, DW_AT_data_member_location[DW_OP_plus_uconst 0x0]
     810                            .dwattr $C$DW$60, DW_AT_accessibility(DW_ACCESS_public)
     811                    
     812                    $C$DW$61        .dwtag  DW_TAG_member
     813                            .dwattr $C$DW$61, DW_AT_type(*$C$DW$T$198)
     814                            .dwattr $C$DW$61, DW_AT_name("gpioPinTable")
     815                            .dwattr $C$DW$61, DW_AT_TI_symbol_name("gpioPinTable")
     816                            .dwattr $C$DW$61, DW_AT_data_member_location[DW_OP_plus_uconst 0x4]
     817                            .dwattr $C$DW$61, DW_AT_accessibility(DW_ACCESS_public)
     818                    
     819                    $C$DW$62        .dwtag  DW_TAG_member
     820                            .dwattr $C$DW$62, DW_AT_type(*$C$DW$T$214)
     821                            .dwattr $C$DW$62, DW_AT_name("gpioPinState")
     822                            .dwattr $C$DW$62, DW_AT_TI_symbol_name("gpioPinState")
     823                            .dwattr $C$DW$62, DW_AT_data_member_location[DW_OP_plus_uconst 0xc]
     824                            .dwattr $C$DW$62, DW_AT_accessibility(DW_ACCESS_public)
TI ARM Assembler PC v18.1.3 Wed Dec 12 17:41:55 2018

Tools Copyright (c) 1996-2017 Texas Instruments Incorporated
C:\Users\THE_WO~1\AppData\Local\Temp\{050965DE-8841-4571-8C2C-9ACC23B5DBE4} PAGE   16

     825                    
     826                            .dwendtag $C$DW$T$199
     827                    
     828                    
     829                    $C$DW$T$500     .dwtag  DW_TAG_enumeration_type
     830                            .dwattr $C$DW$T$500, DW_AT_name("CC1350_LAUNCHXL_ADCBuf0ChannelName")
     831                            .dwattr $C$DW$T$500, DW_AT_byte_size(0x01)
     832                    $C$DW$63        .dwtag  DW_TAG_enumerator
     833                            .dwattr $C$DW$63, DW_AT_name("CC1350_LAUNCHXL_ADCBUF0CHANNEL0")
     834                            .dwattr $C$DW$63, DW_AT_const_value(0x00)
     835                            .dwattr $C$DW$63, DW_AT_decl_file("C:\ti\simplelink_cc13x0_sdk_2_30_00_20\examples\rtos\CC1350
     836                            .dwattr $C$DW$63, DW_AT_decl_line(0xba)
     837                            .dwattr $C$DW$63, DW_AT_decl_column(0x05)
     838                    
     839                    $C$DW$64        .dwtag  DW_TAG_enumerator
     840                            .dwattr $C$DW$64, DW_AT_name("CC1350_LAUNCHXL_ADCBUF0CHANNEL1")
     841                            .dwattr $C$DW$64, DW_AT_const_value(0x01)
     842                            .dwattr $C$DW$64, DW_AT_decl_file("C:\ti\simplelink_cc13x0_sdk_2_30_00_20\examples\rtos\CC1350
     843                            .dwattr $C$DW$64, DW_AT_decl_line(0xbb)
     844                            .dwattr $C$DW$64, DW_AT_decl_column(0x05)
     845                    
     846                    $C$DW$65        .dwtag  DW_TAG_enumerator
     847                            .dwattr $C$DW$65, DW_AT_name("CC1350_LAUNCHXL_ADCBUF0CHANNEL2")
     848                            .dwattr $C$DW$65, DW_AT_const_value(0x02)
     849                            .dwattr $C$DW$65, DW_AT_decl_file("C:\ti\simplelink_cc13x0_sdk_2_30_00_20\examples\rtos\CC1350
     850                            .dwattr $C$DW$65, DW_AT_decl_line(0xbc)
     851                            .dwattr $C$DW$65, DW_AT_decl_column(0x05)
     852                    
     853                    $C$DW$66        .dwtag  DW_TAG_enumerator
     854                            .dwattr $C$DW$66, DW_AT_name("CC1350_LAUNCHXL_ADCBUF0CHANNEL3")
     855                            .dwattr $C$DW$66, DW_AT_const_value(0x03)
     856                            .dwattr $C$DW$66, DW_AT_decl_file("C:\ti\simplelink_cc13x0_sdk_2_30_00_20\examples\rtos\CC1350
     857                            .dwattr $C$DW$66, DW_AT_decl_line(0xbd)
     858                            .dwattr $C$DW$66, DW_AT_decl_column(0x05)
     859                    
     860                    $C$DW$67        .dwtag  DW_TAG_enumerator
     861                            .dwattr $C$DW$67, DW_AT_name("CC1350_LAUNCHXL_ADCBUF0CHANNEL4")
     862                            .dwattr $C$DW$67, DW_AT_const_value(0x04)
     863                            .dwattr $C$DW$67, DW_AT_decl_file("C:\ti\simplelink_cc13x0_sdk_2_30_00_20\examples\rtos\CC1350
     864                            .dwattr $C$DW$67, DW_AT_decl_line(0xbe)
     865                            .dwattr $C$DW$67, DW_AT_decl_column(0x05)
     866                    
     867                    $C$DW$68        .dwtag  DW_TAG_enumerator
     868                            .dwattr $C$DW$68, DW_AT_name("CC1350_LAUNCHXL_ADCBUF0CHANNEL5")
     869                            .dwattr $C$DW$68, DW_AT_const_value(0x05)
     870                            .dwattr $C$DW$68, DW_AT_decl_file("C:\ti\simplelink_cc13x0_sdk_2_30_00_20\examples\rtos\CC1350
     871                            .dwattr $C$DW$68, DW_AT_decl_line(0xbf)
     872                            .dwattr $C$DW$68, DW_AT_decl_column(0x05)
     873                    
     874                    $C$DW$69        .dwtag  DW_TAG_enumerator
     875                            .dwattr $C$DW$69, DW_AT_name("CC1350_LAUNCHXL_ADCBUF0CHANNEL6")
     876                            .dwattr $C$DW$69, DW_AT_const_value(0x06)
     877                            .dwattr $C$DW$69, DW_AT_decl_file("C:\ti\simplelink_cc13x0_sdk_2_30_00_20\examples\rtos\CC1350
     878                            .dwattr $C$DW$69, DW_AT_decl_line(0xc0)
     879                            .dwattr $C$DW$69, DW_AT_decl_column(0x05)
TI ARM Assembler PC v18.1.3 Wed Dec 12 17:41:55 2018

Tools Copyright (c) 1996-2017 Texas Instruments Incorporated
C:\Users\THE_WO~1\AppData\Local\Temp\{050965DE-8841-4571-8C2C-9ACC23B5DBE4} PAGE   17

     880                    
     881                    $C$DW$70        .dwtag  DW_TAG_enumerator
     882                            .dwattr $C$DW$70, DW_AT_name("CC1350_LAUNCHXL_ADCBUF0CHANNEL7")
     883                            .dwattr $C$DW$70, DW_AT_const_value(0x07)
     884                            .dwattr $C$DW$70, DW_AT_decl_file("C:\ti\simplelink_cc13x0_sdk_2_30_00_20\examples\rtos\CC1350
     885                            .dwattr $C$DW$70, DW_AT_decl_line(0xc1)
     886                            .dwattr $C$DW$70, DW_AT_decl_column(0x05)
     887                    
     888                    $C$DW$71        .dwtag  DW_TAG_enumerator
     889                            .dwattr $C$DW$71, DW_AT_name("CC1350_LAUNCHXL_ADCBUF0CHANNELVDDS")
     890                            .dwattr $C$DW$71, DW_AT_const_value(0x08)
     891                            .dwattr $C$DW$71, DW_AT_decl_file("C:\ti\simplelink_cc13x0_sdk_2_30_00_20\examples\rtos\CC1350
     892                            .dwattr $C$DW$71, DW_AT_decl_line(0xc2)
     893                            .dwattr $C$DW$71, DW_AT_decl_column(0x05)
     894                    
     895                    $C$DW$72        .dwtag  DW_TAG_enumerator
     896                            .dwattr $C$DW$72, DW_AT_name("CC1350_LAUNCHXL_ADCBUF0CHANNELDCOUPL")
     897                            .dwattr $C$DW$72, DW_AT_const_value(0x09)
     898                            .dwattr $C$DW$72, DW_AT_decl_file("C:\ti\simplelink_cc13x0_sdk_2_30_00_20\examples\rtos\CC1350
     899                            .dwattr $C$DW$72, DW_AT_decl_line(0xc3)
     900                            .dwattr $C$DW$72, DW_AT_decl_column(0x05)
     901                    
     902                    $C$DW$73        .dwtag  DW_TAG_enumerator
     903                            .dwattr $C$DW$73, DW_AT_name("CC1350_LAUNCHXL_ADCBUF0CHANNELVSS")
     904                            .dwattr $C$DW$73, DW_AT_const_value(0x0a)
     905                            .dwattr $C$DW$73, DW_AT_decl_file("C:\ti\simplelink_cc13x0_sdk_2_30_00_20\examples\rtos\CC1350
     906                            .dwattr $C$DW$73, DW_AT_decl_line(0xc4)
     907                            .dwattr $C$DW$73, DW_AT_decl_column(0x05)
     908                    
     909                    $C$DW$74        .dwtag  DW_TAG_enumerator
     910                            .dwattr $C$DW$74, DW_AT_name("CC1350_LAUNCHXL_ADCBUF0CHANNELCOUNT")
     911                            .dwattr $C$DW$74, DW_AT_const_value(0x0b)
     912                            .dwattr $C$DW$74, DW_AT_decl_file("C:\ti\simplelink_cc13x0_sdk_2_30_00_20\examples\rtos\CC1350
     913                            .dwattr $C$DW$74, DW_AT_decl_line(0xc6)
     914                            .dwattr $C$DW$74, DW_AT_decl_column(0x05)
     915                    
     916                            .dwattr $C$DW$T$500, DW_AT_decl_file("C:\ti\simplelink_cc13x0_sdk_2_30_00_20\examples\rtos\CC1
     917                            .dwattr $C$DW$T$500, DW_AT_decl_line(0xb9)
     918                            .dwattr $C$DW$T$500, DW_AT_decl_column(0x0e)
     919                            .dwendtag $C$DW$T$500
     920                    
     921                    $C$DW$T$501     .dwtag  DW_TAG_typedef
     922                            .dwattr $C$DW$T$501, DW_AT_name("CC1350_LAUNCHXL_ADCBuf0ChannelName")
     923                            .dwattr $C$DW$T$501, DW_AT_type(*$C$DW$T$500)
     924                            .dwattr $C$DW$T$501, DW_AT_language(DW_LANG_C)
     925                            .dwattr $C$DW$T$501, DW_AT_decl_file("C:\ti\simplelink_cc13x0_sdk_2_30_00_20\examples\rtos\CC1
     926                            .dwattr $C$DW$T$501, DW_AT_decl_line(0xc7)
     927                            .dwattr $C$DW$T$501, DW_AT_decl_column(0x03)
     928                    
     929                    
     930                    $C$DW$T$502     .dwtag  DW_TAG_enumeration_type
     931                            .dwattr $C$DW$T$502, DW_AT_name("CC1350_LAUNCHXL_ADCBufName")
     932                            .dwattr $C$DW$T$502, DW_AT_byte_size(0x01)
     933                    $C$DW$75        .dwtag  DW_TAG_enumerator
     934                            .dwattr $C$DW$75, DW_AT_name("CC1350_LAUNCHXL_ADCBUF0")
TI ARM Assembler PC v18.1.3 Wed Dec 12 17:41:55 2018

Tools Copyright (c) 1996-2017 Texas Instruments Incorporated
C:\Users\THE_WO~1\AppData\Local\Temp\{050965DE-8841-4571-8C2C-9ACC23B5DBE4} PAGE   18

     935                            .dwattr $C$DW$75, DW_AT_const_value(0x00)
     936                            .dwattr $C$DW$75, DW_AT_decl_file("C:\ti\simplelink_cc13x0_sdk_2_30_00_20\examples\rtos\CC1350
     937                            .dwattr $C$DW$75, DW_AT_decl_line(0xb0)
     938                            .dwattr $C$DW$75, DW_AT_decl_column(0x05)
     939                    
     940                    $C$DW$76        .dwtag  DW_TAG_enumerator
     941                            .dwattr $C$DW$76, DW_AT_name("CC1350_LAUNCHXL_ADCBUFCOUNT")
     942                            .dwattr $C$DW$76, DW_AT_const_value(0x01)
     943                            .dwattr $C$DW$76, DW_AT_decl_file("C:\ti\simplelink_cc13x0_sdk_2_30_00_20\examples\rtos\CC1350
     944                            .dwattr $C$DW$76, DW_AT_decl_line(0xb2)
     945                            .dwattr $C$DW$76, DW_AT_decl_column(0x05)
     946                    
     947                            .dwattr $C$DW$T$502, DW_AT_decl_file("C:\ti\simplelink_cc13x0_sdk_2_30_00_20\examples\rtos\CC1
     948                            .dwattr $C$DW$T$502, DW_AT_decl_line(0xaf)
     949                            .dwattr $C$DW$T$502, DW_AT_decl_column(0x0e)
     950                            .dwendtag $C$DW$T$502
     951                    
     952                    $C$DW$T$503     .dwtag  DW_TAG_typedef
     953                            .dwattr $C$DW$T$503, DW_AT_name("CC1350_LAUNCHXL_ADCBufName")
     954                            .dwattr $C$DW$T$503, DW_AT_type(*$C$DW$T$502)
     955                            .dwattr $C$DW$T$503, DW_AT_language(DW_LANG_C)
     956                            .dwattr $C$DW$T$503, DW_AT_decl_file("C:\ti\simplelink_cc13x0_sdk_2_30_00_20\examples\rtos\CC1
     957                            .dwattr $C$DW$T$503, DW_AT_decl_line(0xb3)
     958                            .dwattr $C$DW$T$503, DW_AT_decl_column(0x03)
     959                    
     960                    
     961                    $C$DW$T$504     .dwtag  DW_TAG_enumeration_type
     962                            .dwattr $C$DW$T$504, DW_AT_name("CC1350_LAUNCHXL_ADCName")
     963                            .dwattr $C$DW$T$504, DW_AT_byte_size(0x01)
     964                    $C$DW$77        .dwtag  DW_TAG_enumerator
     965                            .dwattr $C$DW$77, DW_AT_name("CC1350_LAUNCHXL_ADC0")
     966                            .dwattr $C$DW$77, DW_AT_const_value(0x00)
     967                            .dwattr $C$DW$77, DW_AT_decl_file("C:\ti\simplelink_cc13x0_sdk_2_30_00_20\examples\rtos\CC1350
     968                            .dwattr $C$DW$77, DW_AT_decl_line(0xce)
     969                            .dwattr $C$DW$77, DW_AT_decl_column(0x05)
     970                    
     971                    $C$DW$78        .dwtag  DW_TAG_enumerator
     972                            .dwattr $C$DW$78, DW_AT_name("CC1350_LAUNCHXL_ADC1")
     973                            .dwattr $C$DW$78, DW_AT_const_value(0x01)
     974                            .dwattr $C$DW$78, DW_AT_decl_file("C:\ti\simplelink_cc13x0_sdk_2_30_00_20\examples\rtos\CC1350
     975                            .dwattr $C$DW$78, DW_AT_decl_line(0xcf)
     976                            .dwattr $C$DW$78, DW_AT_decl_column(0x05)
     977                    
     978                    $C$DW$79        .dwtag  DW_TAG_enumerator
     979                            .dwattr $C$DW$79, DW_AT_name("CC1350_LAUNCHXL_ADC2")
     980                            .dwattr $C$DW$79, DW_AT_const_value(0x02)
     981                            .dwattr $C$DW$79, DW_AT_decl_file("C:\ti\simplelink_cc13x0_sdk_2_30_00_20\examples\rtos\CC1350
     982                            .dwattr $C$DW$79, DW_AT_decl_line(0xd0)
     983                            .dwattr $C$DW$79, DW_AT_decl_column(0x05)
     984                    
     985                    $C$DW$80        .dwtag  DW_TAG_enumerator
     986                            .dwattr $C$DW$80, DW_AT_name("CC1350_LAUNCHXL_ADC3")
     987                            .dwattr $C$DW$80, DW_AT_const_value(0x03)
     988                            .dwattr $C$DW$80, DW_AT_decl_file("C:\ti\simplelink_cc13x0_sdk_2_30_00_20\examples\rtos\CC1350
     989                            .dwattr $C$DW$80, DW_AT_decl_line(0xd1)
TI ARM Assembler PC v18.1.3 Wed Dec 12 17:41:55 2018

Tools Copyright (c) 1996-2017 Texas Instruments Incorporated
C:\Users\THE_WO~1\AppData\Local\Temp\{050965DE-8841-4571-8C2C-9ACC23B5DBE4} PAGE   19

     990                            .dwattr $C$DW$80, DW_AT_decl_column(0x05)
     991                    
     992                    $C$DW$81        .dwtag  DW_TAG_enumerator
     993                            .dwattr $C$DW$81, DW_AT_name("CC1350_LAUNCHXL_ADC4")
     994                            .dwattr $C$DW$81, DW_AT_const_value(0x04)
     995                            .dwattr $C$DW$81, DW_AT_decl_file("C:\ti\simplelink_cc13x0_sdk_2_30_00_20\examples\rtos\CC1350
     996                            .dwattr $C$DW$81, DW_AT_decl_line(0xd2)
     997                            .dwattr $C$DW$81, DW_AT_decl_column(0x05)
     998                    
     999                    $C$DW$82        .dwtag  DW_TAG_enumerator
    1000                            .dwattr $C$DW$82, DW_AT_name("CC1350_LAUNCHXL_ADC5")
    1001                            .dwattr $C$DW$82, DW_AT_const_value(0x05)
    1002                            .dwattr $C$DW$82, DW_AT_decl_file("C:\ti\simplelink_cc13x0_sdk_2_30_00_20\examples\rtos\CC1350
    1003                            .dwattr $C$DW$82, DW_AT_decl_line(0xd3)
    1004                            .dwattr $C$DW$82, DW_AT_decl_column(0x05)
    1005                    
    1006                    $C$DW$83        .dwtag  DW_TAG_enumerator
    1007                            .dwattr $C$DW$83, DW_AT_name("CC1350_LAUNCHXL_ADC6")
    1008                            .dwattr $C$DW$83, DW_AT_const_value(0x06)
    1009                            .dwattr $C$DW$83, DW_AT_decl_file("C:\ti\simplelink_cc13x0_sdk_2_30_00_20\examples\rtos\CC1350
    1010                            .dwattr $C$DW$83, DW_AT_decl_line(0xd4)
    1011                            .dwattr $C$DW$83, DW_AT_decl_column(0x05)
    1012                    
    1013                    $C$DW$84        .dwtag  DW_TAG_enumerator
    1014                            .dwattr $C$DW$84, DW_AT_name("CC1350_LAUNCHXL_ADC7")
    1015                            .dwattr $C$DW$84, DW_AT_const_value(0x07)
    1016                            .dwattr $C$DW$84, DW_AT_decl_file("C:\ti\simplelink_cc13x0_sdk_2_30_00_20\examples\rtos\CC1350
    1017                            .dwattr $C$DW$84, DW_AT_decl_line(0xd5)
    1018                            .dwattr $C$DW$84, DW_AT_decl_column(0x05)
    1019                    
    1020                    $C$DW$85        .dwtag  DW_TAG_enumerator
    1021                            .dwattr $C$DW$85, DW_AT_name("CC1350_LAUNCHXL_ADCDCOUPL")
    1022                            .dwattr $C$DW$85, DW_AT_const_value(0x08)
    1023                            .dwattr $C$DW$85, DW_AT_decl_file("C:\ti\simplelink_cc13x0_sdk_2_30_00_20\examples\rtos\CC1350
    1024                            .dwattr $C$DW$85, DW_AT_decl_line(0xd6)
    1025                            .dwattr $C$DW$85, DW_AT_decl_column(0x05)
    1026                    
    1027                    $C$DW$86        .dwtag  DW_TAG_enumerator
    1028                            .dwattr $C$DW$86, DW_AT_name("CC1350_LAUNCHXL_ADCVSS")
    1029                            .dwattr $C$DW$86, DW_AT_const_value(0x09)
    1030                            .dwattr $C$DW$86, DW_AT_decl_file("C:\ti\simplelink_cc13x0_sdk_2_30_00_20\examples\rtos\CC1350
    1031                            .dwattr $C$DW$86, DW_AT_decl_line(0xd7)
    1032                            .dwattr $C$DW$86, DW_AT_decl_column(0x05)
    1033                    
    1034                    $C$DW$87        .dwtag  DW_TAG_enumerator
    1035                            .dwattr $C$DW$87, DW_AT_name("CC1350_LAUNCHXL_ADCVDDS")
    1036                            .dwattr $C$DW$87, DW_AT_const_value(0x0a)
    1037                            .dwattr $C$DW$87, DW_AT_decl_file("C:\ti\simplelink_cc13x0_sdk_2_30_00_20\examples\rtos\CC1350
    1038                            .dwattr $C$DW$87, DW_AT_decl_line(0xd8)
    1039                            .dwattr $C$DW$87, DW_AT_decl_column(0x05)
    1040                    
    1041                    $C$DW$88        .dwtag  DW_TAG_enumerator
    1042                            .dwattr $C$DW$88, DW_AT_name("CC1350_LAUNCHXL_ADCCOUNT")
    1043                            .dwattr $C$DW$88, DW_AT_const_value(0x0b)
    1044                            .dwattr $C$DW$88, DW_AT_decl_file("C:\ti\simplelink_cc13x0_sdk_2_30_00_20\examples\rtos\CC1350
TI ARM Assembler PC v18.1.3 Wed Dec 12 17:41:55 2018

Tools Copyright (c) 1996-2017 Texas Instruments Incorporated
C:\Users\THE_WO~1\AppData\Local\Temp\{050965DE-8841-4571-8C2C-9ACC23B5DBE4} PAGE   20

    1045                            .dwattr $C$DW$88, DW_AT_decl_line(0xda)
    1046                            .dwattr $C$DW$88, DW_AT_decl_column(0x05)
    1047                    
    1048                            .dwattr $C$DW$T$504, DW_AT_decl_file("C:\ti\simplelink_cc13x0_sdk_2_30_00_20\examples\rtos\CC1
    1049                            .dwattr $C$DW$T$504, DW_AT_decl_line(0xcd)
    1050                            .dwattr $C$DW$T$504, DW_AT_decl_column(0x0e)
    1051                            .dwendtag $C$DW$T$504
    1052                    
    1053                    $C$DW$T$505     .dwtag  DW_TAG_typedef
    1054                            .dwattr $C$DW$T$505, DW_AT_name("CC1350_LAUNCHXL_ADCName")
    1055                            .dwattr $C$DW$T$505, DW_AT_type(*$C$DW$T$504)
    1056                            .dwattr $C$DW$T$505, DW_AT_language(DW_LANG_C)
    1057                            .dwattr $C$DW$T$505, DW_AT_decl_file("C:\ti\simplelink_cc13x0_sdk_2_30_00_20\examples\rtos\CC1
    1058                            .dwattr $C$DW$T$505, DW_AT_decl_line(0xdb)
    1059                            .dwattr $C$DW$T$505, DW_AT_decl_column(0x03)
    1060                    
    1061                    
    1062                    $C$DW$T$506     .dwtag  DW_TAG_enumeration_type
    1063                            .dwattr $C$DW$T$506, DW_AT_name("CC1350_LAUNCHXL_CryptoName")
    1064                            .dwattr $C$DW$T$506, DW_AT_byte_size(0x01)
    1065                    $C$DW$89        .dwtag  DW_TAG_enumerator
    1066                            .dwattr $C$DW$89, DW_AT_name("CC1350_LAUNCHXL_CRYPTO0")
    1067                            .dwattr $C$DW$89, DW_AT_const_value(0x00)
    1068                            .dwattr $C$DW$89, DW_AT_decl_file("C:\ti\simplelink_cc13x0_sdk_2_30_00_20\examples\rtos\CC1350
    1069                            .dwattr $C$DW$89, DW_AT_decl_line(0xe2)
    1070                            .dwattr $C$DW$89, DW_AT_decl_column(0x05)
    1071                    
    1072                    $C$DW$90        .dwtag  DW_TAG_enumerator
    1073                            .dwattr $C$DW$90, DW_AT_name("CC1350_LAUNCHXL_CRYPTOCOUNT")
    1074                            .dwattr $C$DW$90, DW_AT_const_value(0x01)
    1075                            .dwattr $C$DW$90, DW_AT_decl_file("C:\ti\simplelink_cc13x0_sdk_2_30_00_20\examples\rtos\CC1350
    1076                            .dwattr $C$DW$90, DW_AT_decl_line(0xe4)
    1077                            .dwattr $C$DW$90, DW_AT_decl_column(0x05)
    1078                    
    1079                            .dwattr $C$DW$T$506, DW_AT_decl_file("C:\ti\simplelink_cc13x0_sdk_2_30_00_20\examples\rtos\CC1
    1080                            .dwattr $C$DW$T$506, DW_AT_decl_line(0xe1)
    1081                            .dwattr $C$DW$T$506, DW_AT_decl_column(0x0e)
    1082                            .dwendtag $C$DW$T$506
    1083                    
    1084                    $C$DW$T$507     .dwtag  DW_TAG_typedef
    1085                            .dwattr $C$DW$T$507, DW_AT_name("CC1350_LAUNCHXL_CryptoName")
    1086                            .dwattr $C$DW$T$507, DW_AT_type(*$C$DW$T$506)
    1087                            .dwattr $C$DW$T$507, DW_AT_language(DW_LANG_C)
    1088                            .dwattr $C$DW$T$507, DW_AT_decl_file("C:\ti\simplelink_cc13x0_sdk_2_30_00_20\examples\rtos\CC1
    1089                            .dwattr $C$DW$T$507, DW_AT_decl_line(0xe5)
    1090                            .dwattr $C$DW$T$507, DW_AT_decl_column(0x03)
    1091                    
    1092                    
    1093                    $C$DW$T$508     .dwtag  DW_TAG_enumeration_type
    1094                            .dwattr $C$DW$T$508, DW_AT_name("CC1350_LAUNCHXL_GPIOName")
    1095                            .dwattr $C$DW$T$508, DW_AT_byte_size(0x01)
    1096                    $C$DW$91        .dwtag  DW_TAG_enumerator
    1097                            .dwattr $C$DW$91, DW_AT_name("CC1350_LAUNCHXL_GPIO_S1")
    1098                            .dwattr $C$DW$91, DW_AT_const_value(0x00)
    1099                            .dwattr $C$DW$91, DW_AT_decl_file("C:\ti\simplelink_cc13x0_sdk_2_30_00_20\examples\rtos\CC1350
TI ARM Assembler PC v18.1.3 Wed Dec 12 17:41:55 2018

Tools Copyright (c) 1996-2017 Texas Instruments Incorporated
C:\Users\THE_WO~1\AppData\Local\Temp\{050965DE-8841-4571-8C2C-9ACC23B5DBE4} PAGE   21

    1100                            .dwattr $C$DW$91, DW_AT_decl_line(0xec)
    1101                            .dwattr $C$DW$91, DW_AT_decl_column(0x05)
    1102                    
    1103                    $C$DW$92        .dwtag  DW_TAG_enumerator
    1104                            .dwattr $C$DW$92, DW_AT_name("CC1350_LAUNCHXL_GPIO_S2")
    1105                            .dwattr $C$DW$92, DW_AT_const_value(0x01)
    1106                            .dwattr $C$DW$92, DW_AT_decl_file("C:\ti\simplelink_cc13x0_sdk_2_30_00_20\examples\rtos\CC1350
    1107                            .dwattr $C$DW$92, DW_AT_decl_line(0xed)
    1108                            .dwattr $C$DW$92, DW_AT_decl_column(0x05)
    1109                    
    1110                    $C$DW$93        .dwtag  DW_TAG_enumerator
    1111                            .dwattr $C$DW$93, DW_AT_name("CC1350_LAUNCHXL_SPI_MASTER_READY")
    1112                            .dwattr $C$DW$93, DW_AT_const_value(0x02)
    1113                            .dwattr $C$DW$93, DW_AT_decl_file("C:\ti\simplelink_cc13x0_sdk_2_30_00_20\examples\rtos\CC1350
    1114                            .dwattr $C$DW$93, DW_AT_decl_line(0xee)
    1115                            .dwattr $C$DW$93, DW_AT_decl_column(0x05)
    1116                    
    1117                    $C$DW$94        .dwtag  DW_TAG_enumerator
    1118                            .dwattr $C$DW$94, DW_AT_name("CC1350_LAUNCHXL_SPI_SLAVE_READY")
    1119                            .dwattr $C$DW$94, DW_AT_const_value(0x03)
    1120                            .dwattr $C$DW$94, DW_AT_decl_file("C:\ti\simplelink_cc13x0_sdk_2_30_00_20\examples\rtos\CC1350
    1121                            .dwattr $C$DW$94, DW_AT_decl_line(0xef)
    1122                            .dwattr $C$DW$94, DW_AT_decl_column(0x05)
    1123                    
    1124                    $C$DW$95        .dwtag  DW_TAG_enumerator
    1125                            .dwattr $C$DW$95, DW_AT_name("CC1350_LAUNCHXL_GPIO_LED_GREEN")
    1126                            .dwattr $C$DW$95, DW_AT_const_value(0x04)
    1127                            .dwattr $C$DW$95, DW_AT_decl_file("C:\ti\simplelink_cc13x0_sdk_2_30_00_20\examples\rtos\CC1350
    1128                            .dwattr $C$DW$95, DW_AT_decl_line(0xf0)
    1129                            .dwattr $C$DW$95, DW_AT_decl_column(0x05)
    1130                    
    1131                    $C$DW$96        .dwtag  DW_TAG_enumerator
    1132                            .dwattr $C$DW$96, DW_AT_name("CC1350_LAUNCHXL_GPIO_LED_RED")
    1133                            .dwattr $C$DW$96, DW_AT_const_value(0x05)
    1134                            .dwattr $C$DW$96, DW_AT_decl_file("C:\ti\simplelink_cc13x0_sdk_2_30_00_20\examples\rtos\CC1350
    1135                            .dwattr $C$DW$96, DW_AT_decl_line(0xf1)
    1136                            .dwattr $C$DW$96, DW_AT_decl_column(0x05)
    1137                    
    1138                    $C$DW$97        .dwtag  DW_TAG_enumerator
    1139                            .dwattr $C$DW$97, DW_AT_name("CC1350_LAUNCHXL_GPIO_SPI_FLASH_CS")
    1140                            .dwattr $C$DW$97, DW_AT_const_value(0x06)
    1141                            .dwattr $C$DW$97, DW_AT_decl_file("C:\ti\simplelink_cc13x0_sdk_2_30_00_20\examples\rtos\CC1350
    1142                            .dwattr $C$DW$97, DW_AT_decl_line(0xf2)
    1143                            .dwattr $C$DW$97, DW_AT_decl_column(0x05)
    1144                    
    1145                    $C$DW$98        .dwtag  DW_TAG_enumerator
    1146                            .dwattr $C$DW$98, DW_AT_name("CC1350_LAUNCHXL_SDSPI_CS")
    1147                            .dwattr $C$DW$98, DW_AT_const_value(0x07)
    1148                            .dwattr $C$DW$98, DW_AT_decl_file("C:\ti\simplelink_cc13x0_sdk_2_30_00_20\examples\rtos\CC1350
    1149                            .dwattr $C$DW$98, DW_AT_decl_line(0xf3)
    1150                            .dwattr $C$DW$98, DW_AT_decl_column(0x05)
    1151                    
    1152                    $C$DW$99        .dwtag  DW_TAG_enumerator
    1153                            .dwattr $C$DW$99, DW_AT_name("CC1350_LAUNCHXL_GPIO_LCD_CS")
    1154                            .dwattr $C$DW$99, DW_AT_const_value(0x08)
TI ARM Assembler PC v18.1.3 Wed Dec 12 17:41:55 2018

Tools Copyright (c) 1996-2017 Texas Instruments Incorporated
C:\Users\THE_WO~1\AppData\Local\Temp\{050965DE-8841-4571-8C2C-9ACC23B5DBE4} PAGE   22

    1155                            .dwattr $C$DW$99, DW_AT_decl_file("C:\ti\simplelink_cc13x0_sdk_2_30_00_20\examples\rtos\CC1350
    1156                            .dwattr $C$DW$99, DW_AT_decl_line(0xf4)
    1157                            .dwattr $C$DW$99, DW_AT_decl_column(0x05)
    1158                    
    1159                    $C$DW$100       .dwtag  DW_TAG_enumerator
    1160                            .dwattr $C$DW$100, DW_AT_name("CC1350_LAUNCHXL_GPIO_LCD_POWER")
    1161                            .dwattr $C$DW$100, DW_AT_const_value(0x09)
    1162                            .dwattr $C$DW$100, DW_AT_decl_file("C:\ti\simplelink_cc13x0_sdk_2_30_00_20\examples\rtos\CC135
    1163                            .dwattr $C$DW$100, DW_AT_decl_line(0xf5)
    1164                            .dwattr $C$DW$100, DW_AT_decl_column(0x05)
    1165                    
    1166                    $C$DW$101       .dwtag  DW_TAG_enumerator
    1167                            .dwattr $C$DW$101, DW_AT_name("CC1350_LAUNCHXL_GPIO_LCD_ENABLE")
    1168                            .dwattr $C$DW$101, DW_AT_const_value(0x0a)
    1169                            .dwattr $C$DW$101, DW_AT_decl_file("C:\ti\simplelink_cc13x0_sdk_2_30_00_20\examples\rtos\CC135
    1170                            .dwattr $C$DW$101, DW_AT_decl_line(0xf6)
    1171                            .dwattr $C$DW$101, DW_AT_decl_column(0x05)
    1172                    
    1173                    $C$DW$102       .dwtag  DW_TAG_enumerator
    1174                            .dwattr $C$DW$102, DW_AT_name("CC1350_LAUNCHXL_GPIOCOUNT")
    1175                            .dwattr $C$DW$102, DW_AT_const_value(0x0b)
    1176                            .dwattr $C$DW$102, DW_AT_decl_file("C:\ti\simplelink_cc13x0_sdk_2_30_00_20\examples\rtos\CC135
    1177                            .dwattr $C$DW$102, DW_AT_decl_line(0xf7)
    1178                            .dwattr $C$DW$102, DW_AT_decl_column(0x05)
    1179                    
    1180                            .dwattr $C$DW$T$508, DW_AT_decl_file("C:\ti\simplelink_cc13x0_sdk_2_30_00_20\examples\rtos\CC1
    1181                            .dwattr $C$DW$T$508, DW_AT_decl_line(0xeb)
    1182                            .dwattr $C$DW$T$508, DW_AT_decl_column(0x0e)
    1183                            .dwendtag $C$DW$T$508
    1184                    
    1185                    $C$DW$T$509     .dwtag  DW_TAG_typedef
    1186                            .dwattr $C$DW$T$509, DW_AT_name("CC1350_LAUNCHXL_GPIOName")
    1187                            .dwattr $C$DW$T$509, DW_AT_type(*$C$DW$T$508)
    1188                            .dwattr $C$DW$T$509, DW_AT_language(DW_LANG_C)
    1189                            .dwattr $C$DW$T$509, DW_AT_decl_file("C:\ti\simplelink_cc13x0_sdk_2_30_00_20\examples\rtos\CC1
    1190                            .dwattr $C$DW$T$509, DW_AT_decl_line(0xf8)
    1191                            .dwattr $C$DW$T$509, DW_AT_decl_column(0x03)
    1192                    
    1193                    
    1194                    $C$DW$T$510     .dwtag  DW_TAG_enumeration_type
    1195                            .dwattr $C$DW$T$510, DW_AT_name("CC1350_LAUNCHXL_GPTimerName")
    1196                            .dwattr $C$DW$T$510, DW_AT_byte_size(0x01)
    1197                    $C$DW$103       .dwtag  DW_TAG_enumerator
    1198                            .dwattr $C$DW$103, DW_AT_name("CC1350_LAUNCHXL_GPTIMER0A")
    1199                            .dwattr $C$DW$103, DW_AT_const_value(0x00)
    1200                            .dwattr $C$DW$103, DW_AT_decl_file("C:\ti\simplelink_cc13x0_sdk_2_30_00_20\examples\rtos\CC135
    1201                            .dwattr $C$DW$103, DW_AT_decl_line(0xff)
    1202                            .dwattr $C$DW$103, DW_AT_decl_column(0x05)
    1203                    
    1204                    $C$DW$104       .dwtag  DW_TAG_enumerator
    1205                            .dwattr $C$DW$104, DW_AT_name("CC1350_LAUNCHXL_GPTIMER0B")
    1206                            .dwattr $C$DW$104, DW_AT_const_value(0x01)
    1207                            .dwattr $C$DW$104, DW_AT_decl_file("C:\ti\simplelink_cc13x0_sdk_2_30_00_20\examples\rtos\CC135
    1208                            .dwattr $C$DW$104, DW_AT_decl_line(0x100)
    1209                            .dwattr $C$DW$104, DW_AT_decl_column(0x05)
TI ARM Assembler PC v18.1.3 Wed Dec 12 17:41:55 2018

Tools Copyright (c) 1996-2017 Texas Instruments Incorporated
C:\Users\THE_WO~1\AppData\Local\Temp\{050965DE-8841-4571-8C2C-9ACC23B5DBE4} PAGE   23

    1210                    
    1211                    $C$DW$105       .dwtag  DW_TAG_enumerator
    1212                            .dwattr $C$DW$105, DW_AT_name("CC1350_LAUNCHXL_GPTIMER1A")
    1213                            .dwattr $C$DW$105, DW_AT_const_value(0x02)
    1214                            .dwattr $C$DW$105, DW_AT_decl_file("C:\ti\simplelink_cc13x0_sdk_2_30_00_20\examples\rtos\CC135
    1215                            .dwattr $C$DW$105, DW_AT_decl_line(0x101)
    1216                            .dwattr $C$DW$105, DW_AT_decl_column(0x05)
    1217                    
    1218                    $C$DW$106       .dwtag  DW_TAG_enumerator
    1219                            .dwattr $C$DW$106, DW_AT_name("CC1350_LAUNCHXL_GPTIMER1B")
    1220                            .dwattr $C$DW$106, DW_AT_const_value(0x03)
    1221                            .dwattr $C$DW$106, DW_AT_decl_file("C:\ti\simplelink_cc13x0_sdk_2_30_00_20\examples\rtos\CC135
    1222                            .dwattr $C$DW$106, DW_AT_decl_line(0x102)
    1223                            .dwattr $C$DW$106, DW_AT_decl_column(0x05)
    1224                    
    1225                    $C$DW$107       .dwtag  DW_TAG_enumerator
    1226                            .dwattr $C$DW$107, DW_AT_name("CC1350_LAUNCHXL_GPTIMER2A")
    1227                            .dwattr $C$DW$107, DW_AT_const_value(0x04)
    1228                            .dwattr $C$DW$107, DW_AT_decl_file("C:\ti\simplelink_cc13x0_sdk_2_30_00_20\examples\rtos\CC135
    1229                            .dwattr $C$DW$107, DW_AT_decl_line(0x103)
    1230                            .dwattr $C$DW$107, DW_AT_decl_column(0x05)
    1231                    
    1232                    $C$DW$108       .dwtag  DW_TAG_enumerator
    1233                            .dwattr $C$DW$108, DW_AT_name("CC1350_LAUNCHXL_GPTIMER2B")
    1234                            .dwattr $C$DW$108, DW_AT_const_value(0x05)
    1235                            .dwattr $C$DW$108, DW_AT_decl_file("C:\ti\simplelink_cc13x0_sdk_2_30_00_20\examples\rtos\CC135
    1236                            .dwattr $C$DW$108, DW_AT_decl_line(0x104)
    1237                            .dwattr $C$DW$108, DW_AT_decl_column(0x05)
    1238                    
    1239                    $C$DW$109       .dwtag  DW_TAG_enumerator
    1240                            .dwattr $C$DW$109, DW_AT_name("CC1350_LAUNCHXL_GPTIMER3A")
    1241                            .dwattr $C$DW$109, DW_AT_const_value(0x06)
    1242                            .dwattr $C$DW$109, DW_AT_decl_file("C:\ti\simplelink_cc13x0_sdk_2_30_00_20\examples\rtos\CC135
    1243                            .dwattr $C$DW$109, DW_AT_decl_line(0x105)
    1244                            .dwattr $C$DW$109, DW_AT_decl_column(0x05)
    1245                    
    1246                    $C$DW$110       .dwtag  DW_TAG_enumerator
    1247                            .dwattr $C$DW$110, DW_AT_name("CC1350_LAUNCHXL_GPTIMER3B")
    1248                            .dwattr $C$DW$110, DW_AT_const_value(0x07)
    1249                            .dwattr $C$DW$110, DW_AT_decl_file("C:\ti\simplelink_cc13x0_sdk_2_30_00_20\examples\rtos\CC135
    1250                            .dwattr $C$DW$110, DW_AT_decl_line(0x106)
    1251                            .dwattr $C$DW$110, DW_AT_decl_column(0x05)
    1252                    
    1253                    $C$DW$111       .dwtag  DW_TAG_enumerator
    1254                            .dwattr $C$DW$111, DW_AT_name("CC1350_LAUNCHXL_GPTIMERPARTSCOUNT")
    1255                            .dwattr $C$DW$111, DW_AT_const_value(0x08)
    1256                            .dwattr $C$DW$111, DW_AT_decl_file("C:\ti\simplelink_cc13x0_sdk_2_30_00_20\examples\rtos\CC135
    1257                            .dwattr $C$DW$111, DW_AT_decl_line(0x108)
    1258                            .dwattr $C$DW$111, DW_AT_decl_column(0x05)
    1259                    
    1260                            .dwattr $C$DW$T$510, DW_AT_decl_file("C:\ti\simplelink_cc13x0_sdk_2_30_00_20\examples\rtos\CC1
    1261                            .dwattr $C$DW$T$510, DW_AT_decl_line(0xfe)
    1262                            .dwattr $C$DW$T$510, DW_AT_decl_column(0x0e)
    1263                            .dwendtag $C$DW$T$510
    1264                    
TI ARM Assembler PC v18.1.3 Wed Dec 12 17:41:55 2018

Tools Copyright (c) 1996-2017 Texas Instruments Incorporated
C:\Users\THE_WO~1\AppData\Local\Temp\{050965DE-8841-4571-8C2C-9ACC23B5DBE4} PAGE   24

    1265                    $C$DW$T$511     .dwtag  DW_TAG_typedef
    1266                            .dwattr $C$DW$T$511, DW_AT_name("CC1350_LAUNCHXL_GPTimerName")
    1267                            .dwattr $C$DW$T$511, DW_AT_type(*$C$DW$T$510)
    1268                            .dwattr $C$DW$T$511, DW_AT_language(DW_LANG_C)
    1269                            .dwattr $C$DW$T$511, DW_AT_decl_file("C:\ti\simplelink_cc13x0_sdk_2_30_00_20\examples\rtos\CC1
    1270                            .dwattr $C$DW$T$511, DW_AT_decl_line(0x109)
    1271                            .dwattr $C$DW$T$511, DW_AT_decl_column(0x03)
    1272                    
    1273                    
    1274                    $C$DW$T$512     .dwtag  DW_TAG_enumeration_type
    1275                            .dwattr $C$DW$T$512, DW_AT_name("CC1350_LAUNCHXL_GPTimers")
    1276                            .dwattr $C$DW$T$512, DW_AT_byte_size(0x01)
    1277                    $C$DW$112       .dwtag  DW_TAG_enumerator
    1278                            .dwattr $C$DW$112, DW_AT_name("CC1350_LAUNCHXL_GPTIMER0")
    1279                            .dwattr $C$DW$112, DW_AT_const_value(0x00)
    1280                            .dwattr $C$DW$112, DW_AT_decl_file("C:\ti\simplelink_cc13x0_sdk_2_30_00_20\examples\rtos\CC135
    1281                            .dwattr $C$DW$112, DW_AT_decl_line(0x110)
    1282                            .dwattr $C$DW$112, DW_AT_decl_column(0x05)
    1283                    
    1284                    $C$DW$113       .dwtag  DW_TAG_enumerator
    1285                            .dwattr $C$DW$113, DW_AT_name("CC1350_LAUNCHXL_GPTIMER1")
    1286                            .dwattr $C$DW$113, DW_AT_const_value(0x01)
    1287                            .dwattr $C$DW$113, DW_AT_decl_file("C:\ti\simplelink_cc13x0_sdk_2_30_00_20\examples\rtos\CC135
    1288                            .dwattr $C$DW$113, DW_AT_decl_line(0x111)
    1289                            .dwattr $C$DW$113, DW_AT_decl_column(0x05)
    1290                    
    1291                    $C$DW$114       .dwtag  DW_TAG_enumerator
    1292                            .dwattr $C$DW$114, DW_AT_name("CC1350_LAUNCHXL_GPTIMER2")
    1293                            .dwattr $C$DW$114, DW_AT_const_value(0x02)
    1294                            .dwattr $C$DW$114, DW_AT_decl_file("C:\ti\simplelink_cc13x0_sdk_2_30_00_20\examples\rtos\CC135
    1295                            .dwattr $C$DW$114, DW_AT_decl_line(0x112)
    1296                            .dwattr $C$DW$114, DW_AT_decl_column(0x05)
    1297                    
    1298                    $C$DW$115       .dwtag  DW_TAG_enumerator
    1299                            .dwattr $C$DW$115, DW_AT_name("CC1350_LAUNCHXL_GPTIMER3")
    1300                            .dwattr $C$DW$115, DW_AT_const_value(0x03)
    1301                            .dwattr $C$DW$115, DW_AT_decl_file("C:\ti\simplelink_cc13x0_sdk_2_30_00_20\examples\rtos\CC135
    1302                            .dwattr $C$DW$115, DW_AT_decl_line(0x113)
    1303                            .dwattr $C$DW$115, DW_AT_decl_column(0x05)
    1304                    
    1305                    $C$DW$116       .dwtag  DW_TAG_enumerator
    1306                            .dwattr $C$DW$116, DW_AT_name("CC1350_LAUNCHXL_GPTIMERCOUNT")
    1307                            .dwattr $C$DW$116, DW_AT_const_value(0x04)
    1308                            .dwattr $C$DW$116, DW_AT_decl_file("C:\ti\simplelink_cc13x0_sdk_2_30_00_20\examples\rtos\CC135
    1309                            .dwattr $C$DW$116, DW_AT_decl_line(0x115)
    1310                            .dwattr $C$DW$116, DW_AT_decl_column(0x05)
    1311                    
    1312                            .dwattr $C$DW$T$512, DW_AT_decl_file("C:\ti\simplelink_cc13x0_sdk_2_30_00_20\examples\rtos\CC1
    1313                            .dwattr $C$DW$T$512, DW_AT_decl_line(0x10f)
    1314                            .dwattr $C$DW$T$512, DW_AT_decl_column(0x0e)
    1315                            .dwendtag $C$DW$T$512
    1316                    
    1317                    $C$DW$T$513     .dwtag  DW_TAG_typedef
    1318                            .dwattr $C$DW$T$513, DW_AT_name("CC1350_LAUNCHXL_GPTimers")
    1319                            .dwattr $C$DW$T$513, DW_AT_type(*$C$DW$T$512)
TI ARM Assembler PC v18.1.3 Wed Dec 12 17:41:55 2018

Tools Copyright (c) 1996-2017 Texas Instruments Incorporated
C:\Users\THE_WO~1\AppData\Local\Temp\{050965DE-8841-4571-8C2C-9ACC23B5DBE4} PAGE   25

    1320                            .dwattr $C$DW$T$513, DW_AT_language(DW_LANG_C)
    1321                            .dwattr $C$DW$T$513, DW_AT_decl_file("C:\ti\simplelink_cc13x0_sdk_2_30_00_20\examples\rtos\CC1
    1322                            .dwattr $C$DW$T$513, DW_AT_decl_line(0x116)
    1323                            .dwattr $C$DW$T$513, DW_AT_decl_column(0x03)
    1324                    
    1325                    
    1326                    $C$DW$T$514     .dwtag  DW_TAG_enumeration_type
    1327                            .dwattr $C$DW$T$514, DW_AT_name("CC1350_LAUNCHXL_I2CName")
    1328                            .dwattr $C$DW$T$514, DW_AT_byte_size(0x01)
    1329                    $C$DW$117       .dwtag  DW_TAG_enumerator
    1330                            .dwattr $C$DW$117, DW_AT_name("CC1350_LAUNCHXL_I2C0")
    1331                            .dwattr $C$DW$117, DW_AT_const_value(0x00)
    1332                            .dwattr $C$DW$117, DW_AT_decl_file("C:\ti\simplelink_cc13x0_sdk_2_30_00_20\examples\rtos\CC135
    1333                            .dwattr $C$DW$117, DW_AT_decl_line(0x11d)
    1334                            .dwattr $C$DW$117, DW_AT_decl_column(0x05)
    1335                    
    1336                    $C$DW$118       .dwtag  DW_TAG_enumerator
    1337                            .dwattr $C$DW$118, DW_AT_name("CC1350_LAUNCHXL_I2CCOUNT")
    1338                            .dwattr $C$DW$118, DW_AT_const_value(0x01)
    1339                            .dwattr $C$DW$118, DW_AT_decl_file("C:\ti\simplelink_cc13x0_sdk_2_30_00_20\examples\rtos\CC135
    1340                            .dwattr $C$DW$118, DW_AT_decl_line(0x11f)
    1341                            .dwattr $C$DW$118, DW_AT_decl_column(0x05)
    1342                    
    1343                            .dwattr $C$DW$T$514, DW_AT_decl_file("C:\ti\simplelink_cc13x0_sdk_2_30_00_20\examples\rtos\CC1
    1344                            .dwattr $C$DW$T$514, DW_AT_decl_line(0x11c)
    1345                            .dwattr $C$DW$T$514, DW_AT_decl_column(0x0e)
    1346                            .dwendtag $C$DW$T$514
    1347                    
    1348                    $C$DW$T$515     .dwtag  DW_TAG_typedef
    1349                            .dwattr $C$DW$T$515, DW_AT_name("CC1350_LAUNCHXL_I2CName")
    1350                            .dwattr $C$DW$T$515, DW_AT_type(*$C$DW$T$514)
    1351                            .dwattr $C$DW$T$515, DW_AT_language(DW_LANG_C)
    1352                            .dwattr $C$DW$T$515, DW_AT_decl_file("C:\ti\simplelink_cc13x0_sdk_2_30_00_20\examples\rtos\CC1
    1353                            .dwattr $C$DW$T$515, DW_AT_decl_line(0x120)
    1354                            .dwattr $C$DW$T$515, DW_AT_decl_column(0x03)
    1355                    
    1356                    
    1357                    $C$DW$T$516     .dwtag  DW_TAG_enumeration_type
    1358                            .dwattr $C$DW$T$516, DW_AT_name("CC1350_LAUNCHXL_NVSName")
    1359                            .dwattr $C$DW$T$516, DW_AT_byte_size(0x01)
    1360                    $C$DW$119       .dwtag  DW_TAG_enumerator
    1361                            .dwattr $C$DW$119, DW_AT_name("CC1350_LAUNCHXL_NVSCC26XX0")
    1362                            .dwattr $C$DW$119, DW_AT_const_value(0x00)
    1363                            .dwattr $C$DW$119, DW_AT_decl_file("C:\ti\simplelink_cc13x0_sdk_2_30_00_20\examples\rtos\CC135
    1364                            .dwattr $C$DW$119, DW_AT_decl_line(0x128)
    1365                            .dwattr $C$DW$119, DW_AT_decl_column(0x05)
    1366                    
    1367                    $C$DW$120       .dwtag  DW_TAG_enumerator
    1368                            .dwattr $C$DW$120, DW_AT_name("CC1350_LAUNCHXL_NVSCOUNT")
    1369                            .dwattr $C$DW$120, DW_AT_const_value(0x01)
    1370                            .dwattr $C$DW$120, DW_AT_decl_file("C:\ti\simplelink_cc13x0_sdk_2_30_00_20\examples\rtos\CC135
    1371                            .dwattr $C$DW$120, DW_AT_decl_line(0x12e)
    1372                            .dwattr $C$DW$120, DW_AT_decl_column(0x05)
    1373                    
    1374                            .dwattr $C$DW$T$516, DW_AT_decl_file("C:\ti\simplelink_cc13x0_sdk_2_30_00_20\examples\rtos\CC1
TI ARM Assembler PC v18.1.3 Wed Dec 12 17:41:55 2018

Tools Copyright (c) 1996-2017 Texas Instruments Incorporated
C:\Users\THE_WO~1\AppData\Local\Temp\{050965DE-8841-4571-8C2C-9ACC23B5DBE4} PAGE   26

    1375                            .dwattr $C$DW$T$516, DW_AT_decl_line(0x126)
    1376                            .dwattr $C$DW$T$516, DW_AT_decl_column(0x0e)
    1377                            .dwendtag $C$DW$T$516
    1378                    
    1379                    $C$DW$T$517     .dwtag  DW_TAG_typedef
    1380                            .dwattr $C$DW$T$517, DW_AT_name("CC1350_LAUNCHXL_NVSName")
    1381                            .dwattr $C$DW$T$517, DW_AT_type(*$C$DW$T$516)
    1382                            .dwattr $C$DW$T$517, DW_AT_language(DW_LANG_C)
    1383                            .dwattr $C$DW$T$517, DW_AT_decl_file("C:\ti\simplelink_cc13x0_sdk_2_30_00_20\examples\rtos\CC1
    1384                            .dwattr $C$DW$T$517, DW_AT_decl_line(0x12f)
    1385                            .dwattr $C$DW$T$517, DW_AT_decl_column(0x03)
    1386                    
    1387                    
    1388                    $C$DW$T$518     .dwtag  DW_TAG_enumeration_type
    1389                            .dwattr $C$DW$T$518, DW_AT_name("CC1350_LAUNCHXL_PWMName")
    1390                            .dwattr $C$DW$T$518, DW_AT_byte_size(0x01)
    1391                    $C$DW$121       .dwtag  DW_TAG_enumerator
    1392                            .dwattr $C$DW$121, DW_AT_name("CC1350_LAUNCHXL_PWM0")
    1393                            .dwattr $C$DW$121, DW_AT_const_value(0x00)
    1394                            .dwattr $C$DW$121, DW_AT_decl_file("C:\ti\simplelink_cc13x0_sdk_2_30_00_20\examples\rtos\CC135
    1395                            .dwattr $C$DW$121, DW_AT_decl_line(0x136)
    1396                            .dwattr $C$DW$121, DW_AT_decl_column(0x05)
    1397                    
    1398                    $C$DW$122       .dwtag  DW_TAG_enumerator
    1399                            .dwattr $C$DW$122, DW_AT_name("CC1350_LAUNCHXL_PWM1")
    1400                            .dwattr $C$DW$122, DW_AT_const_value(0x01)
    1401                            .dwattr $C$DW$122, DW_AT_decl_file("C:\ti\simplelink_cc13x0_sdk_2_30_00_20\examples\rtos\CC135
    1402                            .dwattr $C$DW$122, DW_AT_decl_line(0x137)
    1403                            .dwattr $C$DW$122, DW_AT_decl_column(0x05)
    1404                    
    1405                    $C$DW$123       .dwtag  DW_TAG_enumerator
    1406                            .dwattr $C$DW$123, DW_AT_name("CC1350_LAUNCHXL_PWM2")
    1407                            .dwattr $C$DW$123, DW_AT_const_value(0x02)
    1408                            .dwattr $C$DW$123, DW_AT_decl_file("C:\ti\simplelink_cc13x0_sdk_2_30_00_20\examples\rtos\CC135
    1409                            .dwattr $C$DW$123, DW_AT_decl_line(0x138)
    1410                            .dwattr $C$DW$123, DW_AT_decl_column(0x05)
    1411                    
    1412                    $C$DW$124       .dwtag  DW_TAG_enumerator
    1413                            .dwattr $C$DW$124, DW_AT_name("CC1350_LAUNCHXL_PWM3")
    1414                            .dwattr $C$DW$124, DW_AT_const_value(0x03)
    1415                            .dwattr $C$DW$124, DW_AT_decl_file("C:\ti\simplelink_cc13x0_sdk_2_30_00_20\examples\rtos\CC135
    1416                            .dwattr $C$DW$124, DW_AT_decl_line(0x139)
    1417                            .dwattr $C$DW$124, DW_AT_decl_column(0x05)
    1418                    
    1419                    $C$DW$125       .dwtag  DW_TAG_enumerator
    1420                            .dwattr $C$DW$125, DW_AT_name("CC1350_LAUNCHXL_PWM4")
    1421                            .dwattr $C$DW$125, DW_AT_const_value(0x04)
    1422                            .dwattr $C$DW$125, DW_AT_decl_file("C:\ti\simplelink_cc13x0_sdk_2_30_00_20\examples\rtos\CC135
    1423                            .dwattr $C$DW$125, DW_AT_decl_line(0x13a)
    1424                            .dwattr $C$DW$125, DW_AT_decl_column(0x05)
    1425                    
    1426                    $C$DW$126       .dwtag  DW_TAG_enumerator
    1427                            .dwattr $C$DW$126, DW_AT_name("CC1350_LAUNCHXL_PWM5")
    1428                            .dwattr $C$DW$126, DW_AT_const_value(0x05)
    1429                            .dwattr $C$DW$126, DW_AT_decl_file("C:\ti\simplelink_cc13x0_sdk_2_30_00_20\examples\rtos\CC135
TI ARM Assembler PC v18.1.3 Wed Dec 12 17:41:55 2018

Tools Copyright (c) 1996-2017 Texas Instruments Incorporated
C:\Users\THE_WO~1\AppData\Local\Temp\{050965DE-8841-4571-8C2C-9ACC23B5DBE4} PAGE   27

    1430                            .dwattr $C$DW$126, DW_AT_decl_line(0x13b)
    1431                            .dwattr $C$DW$126, DW_AT_decl_column(0x05)
    1432                    
    1433                    $C$DW$127       .dwtag  DW_TAG_enumerator
    1434                            .dwattr $C$DW$127, DW_AT_name("CC1350_LAUNCHXL_PWM6")
    1435                            .dwattr $C$DW$127, DW_AT_const_value(0x06)
    1436                            .dwattr $C$DW$127, DW_AT_decl_file("C:\ti\simplelink_cc13x0_sdk_2_30_00_20\examples\rtos\CC135
    1437                            .dwattr $C$DW$127, DW_AT_decl_line(0x13c)
    1438                            .dwattr $C$DW$127, DW_AT_decl_column(0x05)
    1439                    
    1440                    $C$DW$128       .dwtag  DW_TAG_enumerator
    1441                            .dwattr $C$DW$128, DW_AT_name("CC1350_LAUNCHXL_PWM7")
    1442                            .dwattr $C$DW$128, DW_AT_const_value(0x07)
    1443                            .dwattr $C$DW$128, DW_AT_decl_file("C:\ti\simplelink_cc13x0_sdk_2_30_00_20\examples\rtos\CC135
    1444                            .dwattr $C$DW$128, DW_AT_decl_line(0x13d)
    1445                            .dwattr $C$DW$128, DW_AT_decl_column(0x05)
    1446                    
    1447                    $C$DW$129       .dwtag  DW_TAG_enumerator
    1448                            .dwattr $C$DW$129, DW_AT_name("CC1350_LAUNCHXL_PWMCOUNT")
    1449                            .dwattr $C$DW$129, DW_AT_const_value(0x08)
    1450                            .dwattr $C$DW$129, DW_AT_decl_file("C:\ti\simplelink_cc13x0_sdk_2_30_00_20\examples\rtos\CC135
    1451                            .dwattr $C$DW$129, DW_AT_decl_line(0x13f)
    1452                            .dwattr $C$DW$129, DW_AT_decl_column(0x05)
    1453                    
    1454                            .dwattr $C$DW$T$518, DW_AT_decl_file("C:\ti\simplelink_cc13x0_sdk_2_30_00_20\examples\rtos\CC1
    1455                            .dwattr $C$DW$T$518, DW_AT_decl_line(0x135)
    1456                            .dwattr $C$DW$T$518, DW_AT_decl_column(0x0e)
    1457                            .dwendtag $C$DW$T$518
    1458                    
    1459                    $C$DW$T$519     .dwtag  DW_TAG_typedef
    1460                            .dwattr $C$DW$T$519, DW_AT_name("CC1350_LAUNCHXL_PWMName")
    1461                            .dwattr $C$DW$T$519, DW_AT_type(*$C$DW$T$518)
    1462                            .dwattr $C$DW$T$519, DW_AT_language(DW_LANG_C)
    1463                            .dwattr $C$DW$T$519, DW_AT_decl_file("C:\ti\simplelink_cc13x0_sdk_2_30_00_20\examples\rtos\CC1
    1464                            .dwattr $C$DW$T$519, DW_AT_decl_line(0x140)
    1465                            .dwattr $C$DW$T$519, DW_AT_decl_column(0x03)
    1466                    
    1467                    
    1468                    $C$DW$T$520     .dwtag  DW_TAG_enumeration_type
    1469                            .dwattr $C$DW$T$520, DW_AT_name("CC1350_LAUNCHXL_SDName")
    1470                            .dwattr $C$DW$T$520, DW_AT_byte_size(0x01)
    1471                    $C$DW$130       .dwtag  DW_TAG_enumerator
    1472                            .dwattr $C$DW$130, DW_AT_name("CC1350_LAUNCHXL_SDSPI0")
    1473                            .dwattr $C$DW$130, DW_AT_const_value(0x00)
    1474                            .dwattr $C$DW$130, DW_AT_decl_file("C:\ti\simplelink_cc13x0_sdk_2_30_00_20\examples\rtos\CC135
    1475                            .dwattr $C$DW$130, DW_AT_decl_line(0x147)
    1476                            .dwattr $C$DW$130, DW_AT_decl_column(0x05)
    1477                    
    1478                    $C$DW$131       .dwtag  DW_TAG_enumerator
    1479                            .dwattr $C$DW$131, DW_AT_name("CC1350_LAUNCHXL_SDCOUNT")
    1480                            .dwattr $C$DW$131, DW_AT_const_value(0x01)
    1481                            .dwattr $C$DW$131, DW_AT_decl_file("C:\ti\simplelink_cc13x0_sdk_2_30_00_20\examples\rtos\CC135
    1482                            .dwattr $C$DW$131, DW_AT_decl_line(0x149)
    1483                            .dwattr $C$DW$131, DW_AT_decl_column(0x05)
    1484                    
TI ARM Assembler PC v18.1.3 Wed Dec 12 17:41:55 2018

Tools Copyright (c) 1996-2017 Texas Instruments Incorporated
C:\Users\THE_WO~1\AppData\Local\Temp\{050965DE-8841-4571-8C2C-9ACC23B5DBE4} PAGE   28

    1485                            .dwattr $C$DW$T$520, DW_AT_decl_file("C:\ti\simplelink_cc13x0_sdk_2_30_00_20\examples\rtos\CC1
    1486                            .dwattr $C$DW$T$520, DW_AT_decl_line(0x146)
    1487                            .dwattr $C$DW$T$520, DW_AT_decl_column(0x0e)
    1488                            .dwendtag $C$DW$T$520
    1489                    
    1490                    $C$DW$T$521     .dwtag  DW_TAG_typedef
    1491                            .dwattr $C$DW$T$521, DW_AT_name("CC1350_LAUNCHXL_SDName")
    1492                            .dwattr $C$DW$T$521, DW_AT_type(*$C$DW$T$520)
    1493                            .dwattr $C$DW$T$521, DW_AT_language(DW_LANG_C)
    1494                            .dwattr $C$DW$T$521, DW_AT_decl_file("C:\ti\simplelink_cc13x0_sdk_2_30_00_20\examples\rtos\CC1
    1495                            .dwattr $C$DW$T$521, DW_AT_decl_line(0x14a)
    1496                            .dwattr $C$DW$T$521, DW_AT_decl_column(0x03)
    1497                    
    1498                    
    1499                    $C$DW$T$522     .dwtag  DW_TAG_enumeration_type
    1500                            .dwattr $C$DW$T$522, DW_AT_name("CC1350_LAUNCHXL_SPIName")
    1501                            .dwattr $C$DW$T$522, DW_AT_byte_size(0x01)
    1502                    $C$DW$132       .dwtag  DW_TAG_enumerator
    1503                            .dwattr $C$DW$132, DW_AT_name("CC1350_LAUNCHXL_SPI0")
    1504                            .dwattr $C$DW$132, DW_AT_const_value(0x00)
    1505                            .dwattr $C$DW$132, DW_AT_decl_file("C:\ti\simplelink_cc13x0_sdk_2_30_00_20\examples\rtos\CC135
    1506                            .dwattr $C$DW$132, DW_AT_decl_line(0x151)
    1507                            .dwattr $C$DW$132, DW_AT_decl_column(0x05)
    1508                    
    1509                    $C$DW$133       .dwtag  DW_TAG_enumerator
    1510                            .dwattr $C$DW$133, DW_AT_name("CC1350_LAUNCHXL_SPI1")
    1511                            .dwattr $C$DW$133, DW_AT_const_value(0x01)
    1512                            .dwattr $C$DW$133, DW_AT_decl_file("C:\ti\simplelink_cc13x0_sdk_2_30_00_20\examples\rtos\CC135
    1513                            .dwattr $C$DW$133, DW_AT_decl_line(0x152)
    1514                            .dwattr $C$DW$133, DW_AT_decl_column(0x05)
    1515                    
    1516                    $C$DW$134       .dwtag  DW_TAG_enumerator
    1517                            .dwattr $C$DW$134, DW_AT_name("CC1350_LAUNCHXL_SPICOUNT")
    1518                            .dwattr $C$DW$134, DW_AT_const_value(0x02)
    1519                            .dwattr $C$DW$134, DW_AT_decl_file("C:\ti\simplelink_cc13x0_sdk_2_30_00_20\examples\rtos\CC135
    1520                            .dwattr $C$DW$134, DW_AT_decl_line(0x154)
    1521                            .dwattr $C$DW$134, DW_AT_decl_column(0x05)
    1522                    
    1523                            .dwattr $C$DW$T$522, DW_AT_decl_file("C:\ti\simplelink_cc13x0_sdk_2_30_00_20\examples\rtos\CC1
    1524                            .dwattr $C$DW$T$522, DW_AT_decl_line(0x150)
    1525                            .dwattr $C$DW$T$522, DW_AT_decl_column(0x0e)
    1526                            .dwendtag $C$DW$T$522
    1527                    
    1528                    $C$DW$T$523     .dwtag  DW_TAG_typedef
    1529                            .dwattr $C$DW$T$523, DW_AT_name("CC1350_LAUNCHXL_SPIName")
    1530                            .dwattr $C$DW$T$523, DW_AT_type(*$C$DW$T$522)
    1531                            .dwattr $C$DW$T$523, DW_AT_language(DW_LANG_C)
    1532                            .dwattr $C$DW$T$523, DW_AT_decl_file("C:\ti\simplelink_cc13x0_sdk_2_30_00_20\examples\rtos\CC1
    1533                            .dwattr $C$DW$T$523, DW_AT_decl_line(0x155)
    1534                            .dwattr $C$DW$T$523, DW_AT_decl_column(0x03)
    1535                    
    1536                    
    1537                    $C$DW$T$524     .dwtag  DW_TAG_enumeration_type
    1538                            .dwattr $C$DW$T$524, DW_AT_name("CC1350_LAUNCHXL_UARTName")
    1539                            .dwattr $C$DW$T$524, DW_AT_byte_size(0x01)
TI ARM Assembler PC v18.1.3 Wed Dec 12 17:41:55 2018

Tools Copyright (c) 1996-2017 Texas Instruments Incorporated
C:\Users\THE_WO~1\AppData\Local\Temp\{050965DE-8841-4571-8C2C-9ACC23B5DBE4} PAGE   29

    1540                    $C$DW$135       .dwtag  DW_TAG_enumerator
    1541                            .dwattr $C$DW$135, DW_AT_name("CC1350_LAUNCHXL_UART0")
    1542                            .dwattr $C$DW$135, DW_AT_const_value(0x00)
    1543                            .dwattr $C$DW$135, DW_AT_decl_file("C:\ti\simplelink_cc13x0_sdk_2_30_00_20\examples\rtos\CC135
    1544                            .dwattr $C$DW$135, DW_AT_decl_line(0x15c)
    1545                            .dwattr $C$DW$135, DW_AT_decl_column(0x05)
    1546                    
    1547                    $C$DW$136       .dwtag  DW_TAG_enumerator
    1548                            .dwattr $C$DW$136, DW_AT_name("CC1350_LAUNCHXL_UARTCOUNT")
    1549                            .dwattr $C$DW$136, DW_AT_const_value(0x01)
    1550                            .dwattr $C$DW$136, DW_AT_decl_file("C:\ti\simplelink_cc13x0_sdk_2_30_00_20\examples\rtos\CC135
    1551                            .dwattr $C$DW$136, DW_AT_decl_line(0x15e)
    1552                            .dwattr $C$DW$136, DW_AT_decl_column(0x05)
    1553                    
    1554                            .dwattr $C$DW$T$524, DW_AT_decl_file("C:\ti\simplelink_cc13x0_sdk_2_30_00_20\examples\rtos\CC1
    1555                            .dwattr $C$DW$T$524, DW_AT_decl_line(0x15b)
    1556                            .dwattr $C$DW$T$524, DW_AT_decl_column(0x0e)
    1557                            .dwendtag $C$DW$T$524
    1558                    
    1559                    $C$DW$T$525     .dwtag  DW_TAG_typedef
    1560                            .dwattr $C$DW$T$525, DW_AT_name("CC1350_LAUNCHXL_UARTName")
    1561                            .dwattr $C$DW$T$525, DW_AT_type(*$C$DW$T$524)
    1562                            .dwattr $C$DW$T$525, DW_AT_language(DW_LANG_C)
    1563                            .dwattr $C$DW$T$525, DW_AT_decl_file("C:\ti\simplelink_cc13x0_sdk_2_30_00_20\examples\rtos\CC1
    1564                            .dwattr $C$DW$T$525, DW_AT_decl_line(0x15f)
    1565                            .dwattr $C$DW$T$525, DW_AT_decl_column(0x03)
    1566                    
    1567                    
    1568                    $C$DW$T$526     .dwtag  DW_TAG_enumeration_type
    1569                            .dwattr $C$DW$T$526, DW_AT_name("CC1350_LAUNCHXL_UDMAName")
    1570                            .dwattr $C$DW$T$526, DW_AT_byte_size(0x01)
    1571                    $C$DW$137       .dwtag  DW_TAG_enumerator
    1572                            .dwattr $C$DW$137, DW_AT_name("CC1350_LAUNCHXL_UDMA0")
    1573                            .dwattr $C$DW$137, DW_AT_const_value(0x00)
    1574                            .dwattr $C$DW$137, DW_AT_decl_file("C:\ti\simplelink_cc13x0_sdk_2_30_00_20\examples\rtos\CC135
    1575                            .dwattr $C$DW$137, DW_AT_decl_line(0x166)
    1576                            .dwattr $C$DW$137, DW_AT_decl_column(0x05)
    1577                    
    1578                    $C$DW$138       .dwtag  DW_TAG_enumerator
    1579                            .dwattr $C$DW$138, DW_AT_name("CC1350_LAUNCHXL_UDMACOUNT")
    1580                            .dwattr $C$DW$138, DW_AT_const_value(0x01)
    1581                            .dwattr $C$DW$138, DW_AT_decl_file("C:\ti\simplelink_cc13x0_sdk_2_30_00_20\examples\rtos\CC135
    1582                            .dwattr $C$DW$138, DW_AT_decl_line(0x168)
    1583                            .dwattr $C$DW$138, DW_AT_decl_column(0x05)
    1584                    
    1585                            .dwattr $C$DW$T$526, DW_AT_decl_file("C:\ti\simplelink_cc13x0_sdk_2_30_00_20\examples\rtos\CC1
    1586                            .dwattr $C$DW$T$526, DW_AT_decl_line(0x165)
    1587                            .dwattr $C$DW$T$526, DW_AT_decl_column(0x0e)
    1588                            .dwendtag $C$DW$T$526
    1589                    
    1590                    $C$DW$T$527     .dwtag  DW_TAG_typedef
    1591                            .dwattr $C$DW$T$527, DW_AT_name("CC1350_LAUNCHXL_UDMAName")
    1592                            .dwattr $C$DW$T$527, DW_AT_type(*$C$DW$T$526)
    1593                            .dwattr $C$DW$T$527, DW_AT_language(DW_LANG_C)
    1594                            .dwattr $C$DW$T$527, DW_AT_decl_file("C:\ti\simplelink_cc13x0_sdk_2_30_00_20\examples\rtos\CC1
TI ARM Assembler PC v18.1.3 Wed Dec 12 17:41:55 2018

Tools Copyright (c) 1996-2017 Texas Instruments Incorporated
C:\Users\THE_WO~1\AppData\Local\Temp\{050965DE-8841-4571-8C2C-9ACC23B5DBE4} PAGE   30

    1595                            .dwattr $C$DW$T$527, DW_AT_decl_line(0x169)
    1596                            .dwattr $C$DW$T$527, DW_AT_decl_column(0x03)
    1597                    
    1598                    
    1599                    $C$DW$T$528     .dwtag  DW_TAG_enumeration_type
    1600                            .dwattr $C$DW$T$528, DW_AT_name("CC1350_LAUNCHXL_WatchdogName")
    1601                            .dwattr $C$DW$T$528, DW_AT_byte_size(0x01)
    1602                    $C$DW$139       .dwtag  DW_TAG_enumerator
    1603                            .dwattr $C$DW$139, DW_AT_name("CC1350_LAUNCHXL_WATCHDOG0")
    1604                            .dwattr $C$DW$139, DW_AT_const_value(0x00)
    1605                            .dwattr $C$DW$139, DW_AT_decl_file("C:\ti\simplelink_cc13x0_sdk_2_30_00_20\examples\rtos\CC135
    1606                            .dwattr $C$DW$139, DW_AT_decl_line(0x170)
    1607                            .dwattr $C$DW$139, DW_AT_decl_column(0x05)
    1608                    
    1609                    $C$DW$140       .dwtag  DW_TAG_enumerator
    1610                            .dwattr $C$DW$140, DW_AT_name("CC1350_LAUNCHXL_WATCHDOGCOUNT")
    1611                            .dwattr $C$DW$140, DW_AT_const_value(0x01)
    1612                            .dwattr $C$DW$140, DW_AT_decl_file("C:\ti\simplelink_cc13x0_sdk_2_30_00_20\examples\rtos\CC135
    1613                            .dwattr $C$DW$140, DW_AT_decl_line(0x172)
    1614                            .dwattr $C$DW$140, DW_AT_decl_column(0x05)
    1615                    
    1616                            .dwattr $C$DW$T$528, DW_AT_decl_file("C:\ti\simplelink_cc13x0_sdk_2_30_00_20\examples\rtos\CC1
    1617                            .dwattr $C$DW$T$528, DW_AT_decl_line(0x16f)
    1618                            .dwattr $C$DW$T$528, DW_AT_decl_column(0x0e)
    1619                            .dwendtag $C$DW$T$528
    1620                    
    1621                    $C$DW$T$529     .dwtag  DW_TAG_typedef
    1622                            .dwattr $C$DW$T$529, DW_AT_name("CC1350_LAUNCHXL_WatchdogName")
    1623                            .dwattr $C$DW$T$529, DW_AT_type(*$C$DW$T$528)
    1624                            .dwattr $C$DW$T$529, DW_AT_language(DW_LANG_C)
    1625                            .dwattr $C$DW$T$529, DW_AT_decl_file("C:\ti\simplelink_cc13x0_sdk_2_30_00_20\examples\rtos\CC1
    1626                            .dwattr $C$DW$T$529, DW_AT_decl_line(0x173)
    1627                            .dwattr $C$DW$T$529, DW_AT_decl_column(0x03)
    1628                    
    1629                    
    1630                    $C$DW$T$203     .dwtag  DW_TAG_structure_type
    1631                            .dwattr $C$DW$T$203, DW_AT_name("HwiP_Params")
    1632                            .dwattr $C$DW$T$203, DW_AT_byte_size(0x0c)
    1633                    $C$DW$141       .dwtag  DW_TAG_member
    1634                            .dwattr $C$DW$141, DW_AT_type(*$C$DW$T$201)
    1635                            .dwattr $C$DW$141, DW_AT_name("arg")
    1636                            .dwattr $C$DW$141, DW_AT_TI_symbol_name("arg")
    1637                            .dwattr $C$DW$141, DW_AT_data_member_location[DW_OP_plus_uconst 0x0]
    1638                            .dwattr $C$DW$141, DW_AT_accessibility(DW_ACCESS_public)
    1639                            .dwattr $C$DW$141, DW_AT_decl_file("C:/ti/simplelink_cc13x0_sdk_2_30_00_20/source/ti/drivers/d
    1640                            .dwattr $C$DW$141, DW_AT_decl_line(0x72)
    1641                            .dwattr $C$DW$141, DW_AT_decl_column(0x10)
    1642                    
    1643                    $C$DW$142       .dwtag  DW_TAG_member
    1644                            .dwattr $C$DW$142, DW_AT_type(*$C$DW$T$141)
    1645                            .dwattr $C$DW$142, DW_AT_name("priority")
    1646                            .dwattr $C$DW$142, DW_AT_TI_symbol_name("priority")
    1647                            .dwattr $C$DW$142, DW_AT_data_member_location[DW_OP_plus_uconst 0x4]
    1648                            .dwattr $C$DW$142, DW_AT_accessibility(DW_ACCESS_public)
    1649                            .dwattr $C$DW$142, DW_AT_decl_file("C:/ti/simplelink_cc13x0_sdk_2_30_00_20/source/ti/drivers/d
TI ARM Assembler PC v18.1.3 Wed Dec 12 17:41:55 2018

Tools Copyright (c) 1996-2017 Texas Instruments Incorporated
C:\Users\THE_WO~1\AppData\Local\Temp\{050965DE-8841-4571-8C2C-9ACC23B5DBE4} PAGE   31

    1650                            .dwattr $C$DW$142, DW_AT_decl_line(0x73)
    1651                            .dwattr $C$DW$142, DW_AT_decl_column(0x10)
    1652                    
    1653                    $C$DW$143       .dwtag  DW_TAG_member
    1654                            .dwattr $C$DW$143, DW_AT_type(*$C$DW$T$202)
    1655                            .dwattr $C$DW$143, DW_AT_name("enableInt")
    1656                            .dwattr $C$DW$143, DW_AT_TI_symbol_name("enableInt")
    1657                            .dwattr $C$DW$143, DW_AT_data_member_location[DW_OP_plus_uconst 0x8]
    1658                            .dwattr $C$DW$143, DW_AT_accessibility(DW_ACCESS_public)
    1659                            .dwattr $C$DW$143, DW_AT_decl_file("C:/ti/simplelink_cc13x0_sdk_2_30_00_20/source/ti/drivers/d
    1660                            .dwattr $C$DW$143, DW_AT_decl_line(0x74)
    1661                            .dwattr $C$DW$143, DW_AT_decl_column(0x10)
    1662                    
    1663                            .dwattr $C$DW$T$203, DW_AT_decl_file("C:/ti/simplelink_cc13x0_sdk_2_30_00_20/source/ti/drivers
    1664                            .dwattr $C$DW$T$203, DW_AT_decl_line(0x71)
    1665                            .dwattr $C$DW$T$203, DW_AT_decl_column(0x10)
    1666                            .dwendtag $C$DW$T$203
    1667                    
    1668                    $C$DW$T$530     .dwtag  DW_TAG_typedef
    1669                            .dwattr $C$DW$T$530, DW_AT_name("HwiP_Params")
    1670                            .dwattr $C$DW$T$530, DW_AT_type(*$C$DW$T$203)
    1671                            .dwattr $C$DW$T$530, DW_AT_language(DW_LANG_C)
    1672                            .dwattr $C$DW$T$530, DW_AT_decl_file("C:/ti/simplelink_cc13x0_sdk_2_30_00_20/source/ti/drivers
    1673                            .dwattr $C$DW$T$530, DW_AT_decl_line(0x75)
    1674                            .dwattr $C$DW$T$530, DW_AT_decl_column(0x03)
    1675                    
    1676                    
    1677                    $C$DW$T$531     .dwtag  DW_TAG_enumeration_type
    1678                            .dwattr $C$DW$T$531, DW_AT_name("HwiP_Status")
    1679                            .dwattr $C$DW$T$531, DW_AT_byte_size(0x01)
    1680                    $C$DW$144       .dwtag  DW_TAG_enumerator
    1681                            .dwattr $C$DW$144, DW_AT_name("HwiP_OK")
    1682                            .dwattr $C$DW$144, DW_AT_const_value(0x00)
    1683                            .dwattr $C$DW$144, DW_AT_decl_file("C:/ti/simplelink_cc13x0_sdk_2_30_00_20/source/ti/drivers/d
    1684                            .dwattr $C$DW$144, DW_AT_decl_line(0x5c)
    1685                            .dwattr $C$DW$144, DW_AT_decl_column(0x05)
    1686                    
    1687                    $C$DW$145       .dwtag  DW_TAG_enumerator
    1688                            .dwattr $C$DW$145, DW_AT_name("HwiP_FAILURE")
    1689                            .dwattr $C$DW$145, DW_AT_const_value(-1)
    1690                            .dwattr $C$DW$145, DW_AT_decl_file("C:/ti/simplelink_cc13x0_sdk_2_30_00_20/source/ti/drivers/d
    1691                            .dwattr $C$DW$145, DW_AT_decl_line(0x5d)
    1692                            .dwattr $C$DW$145, DW_AT_decl_column(0x05)
    1693                    
    1694                            .dwattr $C$DW$T$531, DW_AT_decl_file("C:/ti/simplelink_cc13x0_sdk_2_30_00_20/source/ti/drivers
    1695                            .dwattr $C$DW$T$531, DW_AT_decl_line(0x5b)
    1696                            .dwattr $C$DW$T$531, DW_AT_decl_column(0x0e)
    1697                            .dwendtag $C$DW$T$531
    1698                    
    1699                    $C$DW$T$532     .dwtag  DW_TAG_typedef
    1700                            .dwattr $C$DW$T$532, DW_AT_name("HwiP_Status")
    1701                            .dwattr $C$DW$T$532, DW_AT_type(*$C$DW$T$531)
    1702                            .dwattr $C$DW$T$532, DW_AT_language(DW_LANG_C)
    1703                            .dwattr $C$DW$T$532, DW_AT_decl_file("C:/ti/simplelink_cc13x0_sdk_2_30_00_20/source/ti/drivers
    1704                            .dwattr $C$DW$T$532, DW_AT_decl_line(0x5e)
TI ARM Assembler PC v18.1.3 Wed Dec 12 17:41:55 2018

Tools Copyright (c) 1996-2017 Texas Instruments Incorporated
C:\Users\THE_WO~1\AppData\Local\Temp\{050965DE-8841-4571-8C2C-9ACC23B5DBE4} PAGE   32

    1705                            .dwattr $C$DW$T$532, DW_AT_decl_column(0x03)
    1706                    
    1707                    
    1708                    $C$DW$T$206     .dwtag  DW_TAG_union_type
    1709                            .dwattr $C$DW$T$206, DW_AT_name("HwiP_Struct")
    1710                            .dwattr $C$DW$T$206, DW_AT_byte_size(0x1c)
    1711                    $C$DW$146       .dwtag  DW_TAG_member
    1712                            .dwattr $C$DW$146, DW_AT_type(*$C$DW$T$141)
    1713                            .dwattr $C$DW$146, DW_AT_name("dummy")
    1714                            .dwattr $C$DW$146, DW_AT_TI_symbol_name("dummy")
    1715                            .dwattr $C$DW$146, DW_AT_data_member_location[DW_OP_plus_uconst 0x0]
    1716                            .dwattr $C$DW$146, DW_AT_accessibility(DW_ACCESS_public)
    1717                            .dwattr $C$DW$146, DW_AT_decl_file("C:/ti/simplelink_cc13x0_sdk_2_30_00_20/source/ti/drivers/d
    1718                            .dwattr $C$DW$146, DW_AT_decl_line(0x4d)
    1719                            .dwattr $C$DW$146, DW_AT_decl_column(0x0e)
    1720                    
    1721                    $C$DW$147       .dwtag  DW_TAG_member
    1722                            .dwattr $C$DW$147, DW_AT_type(*$C$DW$T$205)
    1723                            .dwattr $C$DW$147, DW_AT_name("data")
    1724                            .dwattr $C$DW$147, DW_AT_TI_symbol_name("data")
    1725                            .dwattr $C$DW$147, DW_AT_data_member_location[DW_OP_plus_uconst 0x0]
    1726                            .dwattr $C$DW$147, DW_AT_accessibility(DW_ACCESS_public)
    1727                            .dwattr $C$DW$147, DW_AT_decl_file("C:/ti/simplelink_cc13x0_sdk_2_30_00_20/source/ti/drivers/d
    1728                            .dwattr $C$DW$147, DW_AT_decl_line(0x4e)
    1729                            .dwattr $C$DW$147, DW_AT_decl_column(0x0e)
    1730                    
    1731                            .dwattr $C$DW$T$206, DW_AT_decl_file("C:/ti/simplelink_cc13x0_sdk_2_30_00_20/source/ti/drivers
    1732                            .dwattr $C$DW$T$206, DW_AT_decl_line(0x4c)
    1733                            .dwattr $C$DW$T$206, DW_AT_decl_column(0x0f)
    1734                            .dwendtag $C$DW$T$206
    1735                    
    1736                    $C$DW$T$533     .dwtag  DW_TAG_typedef
    1737                            .dwattr $C$DW$T$533, DW_AT_name("HwiP_Struct")
    1738                            .dwattr $C$DW$T$533, DW_AT_type(*$C$DW$T$206)
    1739                            .dwattr $C$DW$T$533, DW_AT_language(DW_LANG_C)
    1740                            .dwattr $C$DW$T$533, DW_AT_decl_file("C:/ti/simplelink_cc13x0_sdk_2_30_00_20/source/ti/drivers
    1741                            .dwattr $C$DW$T$533, DW_AT_decl_line(0x4f)
    1742                            .dwattr $C$DW$T$533, DW_AT_decl_column(0x03)
    1743                    
    1744                    
    1745                    $C$DW$T$214     .dwtag  DW_TAG_structure_type
    1746                            .dwattr $C$DW$T$214, DW_AT_name("PIN_State_s")
    1747                            .dwattr $C$DW$T$214, DW_AT_byte_size(0x0c)
    1748                    $C$DW$148       .dwtag  DW_TAG_member
    1749                            .dwattr $C$DW$148, DW_AT_type(*$C$DW$T$213)
    1750                            .dwattr $C$DW$148, DW_AT_name("callbackFxn")
    1751                            .dwattr $C$DW$148, DW_AT_TI_symbol_name("callbackFxn")
    1752                            .dwattr $C$DW$148, DW_AT_data_member_location[DW_OP_plus_uconst 0x0]
    1753                            .dwattr $C$DW$148, DW_AT_accessibility(DW_ACCESS_public)
    1754                            .dwattr $C$DW$148, DW_AT_decl_file("C:/ti/simplelink_cc13x0_sdk_2_30_00_20/source/ti/drivers/P
    1755                            .dwattr $C$DW$148, DW_AT_decl_line(0x2c5)
    1756                            .dwattr $C$DW$148, DW_AT_decl_column(0x11)
    1757                    
    1758                    $C$DW$149       .dwtag  DW_TAG_member
    1759                            .dwattr $C$DW$149, DW_AT_type(*$C$DW$T$141)
TI ARM Assembler PC v18.1.3 Wed Dec 12 17:41:55 2018

Tools Copyright (c) 1996-2017 Texas Instruments Incorporated
C:\Users\THE_WO~1\AppData\Local\Temp\{050965DE-8841-4571-8C2C-9ACC23B5DBE4} PAGE   33

    1760                            .dwattr $C$DW$149, DW_AT_name("portMask")
    1761                            .dwattr $C$DW$149, DW_AT_TI_symbol_name("portMask")
    1762                            .dwattr $C$DW$149, DW_AT_data_member_location[DW_OP_plus_uconst 0x4]
    1763                            .dwattr $C$DW$149, DW_AT_accessibility(DW_ACCESS_public)
    1764                            .dwattr $C$DW$149, DW_AT_decl_file("C:/ti/simplelink_cc13x0_sdk_2_30_00_20/source/ti/drivers/P
    1765                            .dwattr $C$DW$149, DW_AT_decl_line(0x2c6)
    1766                            .dwattr $C$DW$149, DW_AT_decl_column(0x11)
    1767                    
    1768                    $C$DW$150       .dwtag  DW_TAG_member
    1769                            .dwattr $C$DW$150, DW_AT_type(*$C$DW$T$201)
    1770                            .dwattr $C$DW$150, DW_AT_name("userArg")
    1771                            .dwattr $C$DW$150, DW_AT_TI_symbol_name("userArg")
    1772                            .dwattr $C$DW$150, DW_AT_data_member_location[DW_OP_plus_uconst 0x8]
    1773                            .dwattr $C$DW$150, DW_AT_accessibility(DW_ACCESS_public)
    1774                            .dwattr $C$DW$150, DW_AT_decl_file("C:/ti/simplelink_cc13x0_sdk_2_30_00_20/source/ti/drivers/P
    1775                            .dwattr $C$DW$150, DW_AT_decl_line(0x2c7)
    1776                            .dwattr $C$DW$150, DW_AT_decl_column(0x11)
    1777                    
    1778                            .dwattr $C$DW$T$214, DW_AT_decl_file("C:/ti/simplelink_cc13x0_sdk_2_30_00_20/source/ti/drivers
    1779                            .dwattr $C$DW$T$214, DW_AT_decl_line(0x2c4)
    1780                            .dwattr $C$DW$T$214, DW_AT_decl_column(0x08)
    1781                            .dwendtag $C$DW$T$214
    1782                    
    1783                    $C$DW$T$207     .dwtag  DW_TAG_typedef
    1784                            .dwattr $C$DW$T$207, DW_AT_name("PIN_State")
    1785                            .dwattr $C$DW$T$207, DW_AT_type(*$C$DW$T$214)
    1786                            .dwattr $C$DW$T$207, DW_AT_language(DW_LANG_C)
    1787                            .dwattr $C$DW$T$207, DW_AT_decl_file("C:/ti/simplelink_cc13x0_sdk_2_30_00_20/source/ti/drivers
    1788                            .dwattr $C$DW$T$207, DW_AT_decl_line(0x2ad)
    1789                            .dwattr $C$DW$T$207, DW_AT_decl_column(0x1c)
    1790                    
    1791                    $C$DW$T$208     .dwtag  DW_TAG_pointer_type
    1792                            .dwattr $C$DW$T$208, DW_AT_type(*$C$DW$T$207)
    1793                            .dwattr $C$DW$T$208, DW_AT_address_class(0x20)
    1794                    
    1795                    $C$DW$T$209     .dwtag  DW_TAG_typedef
    1796                            .dwattr $C$DW$T$209, DW_AT_name("PIN_Handle")
    1797                            .dwattr $C$DW$T$209, DW_AT_type(*$C$DW$T$208)
    1798                            .dwattr $C$DW$T$209, DW_AT_language(DW_LANG_C)
    1799                            .dwattr $C$DW$T$209, DW_AT_decl_file("C:/ti/simplelink_cc13x0_sdk_2_30_00_20/source/ti/drivers
    1800                            .dwattr $C$DW$T$209, DW_AT_decl_line(0x2b3)
    1801                            .dwattr $C$DW$T$209, DW_AT_decl_column(0x14)
    1802                    
    1803                    $C$DW$T$197     .dwtag  DW_TAG_pointer_type
    1804                            .dwattr $C$DW$T$197, DW_AT_type(*$C$DW$T$214)
    1805                            .dwattr $C$DW$T$197, DW_AT_address_class(0x20)
    1806                    
    1807                    $C$DW$T$2       .dwtag  DW_TAG_unspecified_type
    1808                            .dwattr $C$DW$T$2, DW_AT_name("void")
    1809                    
    1810                    $C$DW$T$3       .dwtag  DW_TAG_pointer_type
    1811                            .dwattr $C$DW$T$3, DW_AT_type(*$C$DW$T$2)
    1812                            .dwattr $C$DW$T$3, DW_AT_address_class(0x20)
    1813                    
    1814                    $C$DW$T$541     .dwtag  DW_TAG_typedef
TI ARM Assembler PC v18.1.3 Wed Dec 12 17:41:55 2018

Tools Copyright (c) 1996-2017 Texas Instruments Incorporated
C:\Users\THE_WO~1\AppData\Local\Temp\{050965DE-8841-4571-8C2C-9ACC23B5DBE4} PAGE   34

    1815                            .dwattr $C$DW$T$541, DW_AT_name("HwiP_Handle")
    1816                            .dwattr $C$DW$T$541, DW_AT_type(*$C$DW$T$3)
    1817                            .dwattr $C$DW$T$541, DW_AT_language(DW_LANG_C)
    1818                            .dwattr $C$DW$T$541, DW_AT_decl_file("C:/ti/simplelink_cc13x0_sdk_2_30_00_20/source/ti/drivers
    1819                            .dwattr $C$DW$T$541, DW_AT_decl_line(0x56)
    1820                            .dwattr $C$DW$T$541, DW_AT_decl_column(0x10)
    1821                    
    1822                    $C$DW$T$341     .dwtag  DW_TAG_typedef
    1823                            .dwattr $C$DW$T$341, DW_AT_name("xdc_Ptr")
    1824                            .dwattr $C$DW$T$341, DW_AT_type(*$C$DW$T$3)
    1825                            .dwattr $C$DW$T$341, DW_AT_language(DW_LANG_C)
    1826                            .dwattr $C$DW$T$341, DW_AT_decl_file("C:/ti/xdctools_3_50_08_24_core/packages/xdc/std.h")
    1827                            .dwattr $C$DW$T$341, DW_AT_decl_line(0x2e)
    1828                            .dwattr $C$DW$T$341, DW_AT_decl_column(0x1a)
    1829                    
    1830                    $C$DW$T$542     .dwtag  DW_TAG_typedef
    1831                            .dwattr $C$DW$T$542, DW_AT_name("CT__ti_sysbios_knl_Clock_Module__gateObj")
    1832                            .dwattr $C$DW$T$542, DW_AT_type(*$C$DW$T$341)
    1833                            .dwattr $C$DW$T$542, DW_AT_language(DW_LANG_C)
    1834                            .dwattr $C$DW$T$542, DW_AT_decl_file("C:/ti/simplelink_cc13x0_sdk_2_30_00_20/kernel/tirtos/pac
    1835                            .dwattr $C$DW$T$542, DW_AT_decl_line(0x8c)
    1836                            .dwattr $C$DW$T$542, DW_AT_decl_column(0x11)
    1837                    
    1838                    $C$DW$T$543     .dwtag  DW_TAG_typedef
    1839                            .dwattr $C$DW$T$543, DW_AT_name("CT__ti_sysbios_knl_Clock_Module__gatePrms")
    1840                            .dwattr $C$DW$T$543, DW_AT_type(*$C$DW$T$341)
    1841                            .dwattr $C$DW$T$543, DW_AT_language(DW_LANG_C)
    1842                            .dwattr $C$DW$T$543, DW_AT_decl_file("C:/ti/simplelink_cc13x0_sdk_2_30_00_20/kernel/tirtos/pac
    1843                            .dwattr $C$DW$T$543, DW_AT_decl_line(0x95)
    1844                            .dwattr $C$DW$T$543, DW_AT_decl_column(0x11)
    1845                    
    1846                    $C$DW$T$544     .dwtag  DW_TAG_typedef
    1847                            .dwattr $C$DW$T$544, DW_AT_name("CT__ti_sysbios_knl_Clock_Module__loggerObj")
    1848                            .dwattr $C$DW$T$544, DW_AT_type(*$C$DW$T$341)
    1849                            .dwattr $C$DW$T$544, DW_AT_language(DW_LANG_C)
    1850                            .dwattr $C$DW$T$544, DW_AT_decl_file("C:/ti/simplelink_cc13x0_sdk_2_30_00_20/kernel/tirtos/pac
    1851                            .dwattr $C$DW$T$544, DW_AT_decl_line(0xb0)
    1852                            .dwattr $C$DW$T$544, DW_AT_decl_column(0x11)
    1853                    
    1854                    $C$DW$T$545     .dwtag  DW_TAG_typedef
    1855                            .dwattr $C$DW$T$545, DW_AT_name("CT__ti_sysbios_knl_Clock_Object__table")
    1856                            .dwattr $C$DW$T$545, DW_AT_type(*$C$DW$T$341)
    1857                            .dwattr $C$DW$T$545, DW_AT_language(DW_LANG_C)
    1858                            .dwattr $C$DW$T$545, DW_AT_decl_file("C:/ti/simplelink_cc13x0_sdk_2_30_00_20/kernel/tirtos/pac
    1859                            .dwattr $C$DW$T$545, DW_AT_decl_line(0x101)
    1860                            .dwattr $C$DW$T$545, DW_AT_decl_column(0x11)
    1861                    
    1862                    $C$DW$T$546     .dwtag  DW_TAG_typedef
    1863                            .dwattr $C$DW$T$546, DW_AT_name("CT__ti_sysbios_knl_Clock_TimerProxy_Module__gateObj")
    1864                            .dwattr $C$DW$T$546, DW_AT_type(*$C$DW$T$341)
    1865                            .dwattr $C$DW$T$546, DW_AT_language(DW_LANG_C)
    1866                            .dwattr $C$DW$T$546, DW_AT_decl_file("C:/ti/simplelink_cc13x0_sdk_2_30_00_20/kernel/tirtos/pac
    1867                            .dwattr $C$DW$T$546, DW_AT_decl_line(0x80)
    1868                            .dwattr $C$DW$T$546, DW_AT_decl_column(0x11)
    1869                    
TI ARM Assembler PC v18.1.3 Wed Dec 12 17:41:55 2018

Tools Copyright (c) 1996-2017 Texas Instruments Incorporated
C:\Users\THE_WO~1\AppData\Local\Temp\{050965DE-8841-4571-8C2C-9ACC23B5DBE4} PAGE   35

    1870                    $C$DW$T$547     .dwtag  DW_TAG_typedef
    1871                            .dwattr $C$DW$T$547, DW_AT_name("CT__ti_sysbios_knl_Clock_TimerProxy_Module__gatePrms")
    1872                            .dwattr $C$DW$T$547, DW_AT_type(*$C$DW$T$341)
    1873                            .dwattr $C$DW$T$547, DW_AT_language(DW_LANG_C)
    1874                            .dwattr $C$DW$T$547, DW_AT_decl_file("C:/ti/simplelink_cc13x0_sdk_2_30_00_20/kernel/tirtos/pac
    1875                            .dwattr $C$DW$T$547, DW_AT_decl_line(0x89)
    1876                            .dwattr $C$DW$T$547, DW_AT_decl_column(0x11)
    1877                    
    1878                    $C$DW$T$548     .dwtag  DW_TAG_typedef
    1879                            .dwattr $C$DW$T$548, DW_AT_name("CT__ti_sysbios_knl_Clock_TimerProxy_Module__loggerObj")
    1880                            .dwattr $C$DW$T$548, DW_AT_type(*$C$DW$T$341)
    1881                            .dwattr $C$DW$T$548, DW_AT_language(DW_LANG_C)
    1882                            .dwattr $C$DW$T$548, DW_AT_decl_file("C:/ti/simplelink_cc13x0_sdk_2_30_00_20/kernel/tirtos/pac
    1883                            .dwattr $C$DW$T$548, DW_AT_decl_line(0xa4)
    1884                            .dwattr $C$DW$T$548, DW_AT_decl_column(0x11)
    1885                    
    1886                    $C$DW$T$549     .dwtag  DW_TAG_typedef
    1887                            .dwattr $C$DW$T$549, DW_AT_name("CT__ti_sysbios_knl_Clock_TimerProxy_Object__table")
    1888                            .dwattr $C$DW$T$549, DW_AT_type(*$C$DW$T$341)
    1889                            .dwattr $C$DW$T$549, DW_AT_language(DW_LANG_C)
    1890                            .dwattr $C$DW$T$549, DW_AT_decl_file("C:/ti/simplelink_cc13x0_sdk_2_30_00_20/kernel/tirtos/pac
    1891                            .dwattr $C$DW$T$549, DW_AT_decl_line(0xf5)
    1892                            .dwattr $C$DW$T$549, DW_AT_decl_column(0x11)
    1893                    
    1894                    $C$DW$T$550     .dwtag  DW_TAG_typedef
    1895                            .dwattr $C$DW$T$550, DW_AT_name("CT__ti_sysbios_knl_Queue_Module__gateObj")
    1896                            .dwattr $C$DW$T$550, DW_AT_type(*$C$DW$T$341)
    1897                            .dwattr $C$DW$T$550, DW_AT_language(DW_LANG_C)
    1898                            .dwattr $C$DW$T$550, DW_AT_decl_file("C:/ti/simplelink_cc13x0_sdk_2_30_00_20/kernel/tirtos/pac
    1899                            .dwattr $C$DW$T$550, DW_AT_decl_line(0x6d)
    1900                            .dwattr $C$DW$T$550, DW_AT_decl_column(0x11)
    1901                    
    1902                    $C$DW$T$551     .dwtag  DW_TAG_typedef
    1903                            .dwattr $C$DW$T$551, DW_AT_name("CT__ti_sysbios_knl_Queue_Module__gatePrms")
    1904                            .dwattr $C$DW$T$551, DW_AT_type(*$C$DW$T$341)
    1905                            .dwattr $C$DW$T$551, DW_AT_language(DW_LANG_C)
    1906                            .dwattr $C$DW$T$551, DW_AT_decl_file("C:/ti/simplelink_cc13x0_sdk_2_30_00_20/kernel/tirtos/pac
    1907                            .dwattr $C$DW$T$551, DW_AT_decl_line(0x76)
    1908                            .dwattr $C$DW$T$551, DW_AT_decl_column(0x11)
    1909                    
    1910                    $C$DW$T$552     .dwtag  DW_TAG_typedef
    1911                            .dwattr $C$DW$T$552, DW_AT_name("CT__ti_sysbios_knl_Queue_Module__loggerObj")
    1912                            .dwattr $C$DW$T$552, DW_AT_type(*$C$DW$T$341)
    1913                            .dwattr $C$DW$T$552, DW_AT_language(DW_LANG_C)
    1914                            .dwattr $C$DW$T$552, DW_AT_decl_file("C:/ti/simplelink_cc13x0_sdk_2_30_00_20/kernel/tirtos/pac
    1915                            .dwattr $C$DW$T$552, DW_AT_decl_line(0x91)
    1916                            .dwattr $C$DW$T$552, DW_AT_decl_column(0x11)
    1917                    
    1918                    $C$DW$T$553     .dwtag  DW_TAG_typedef
    1919                            .dwattr $C$DW$T$553, DW_AT_name("CT__ti_sysbios_knl_Queue_Object__table")
    1920                            .dwattr $C$DW$T$553, DW_AT_type(*$C$DW$T$341)
    1921                            .dwattr $C$DW$T$553, DW_AT_language(DW_LANG_C)
    1922                            .dwattr $C$DW$T$553, DW_AT_decl_file("C:/ti/simplelink_cc13x0_sdk_2_30_00_20/kernel/tirtos/pac
    1923                            .dwattr $C$DW$T$553, DW_AT_decl_line(0xe2)
    1924                            .dwattr $C$DW$T$553, DW_AT_decl_column(0x11)
TI ARM Assembler PC v18.1.3 Wed Dec 12 17:41:55 2018

Tools Copyright (c) 1996-2017 Texas Instruments Incorporated
C:\Users\THE_WO~1\AppData\Local\Temp\{050965DE-8841-4571-8C2C-9ACC23B5DBE4} PAGE   36

    1925                    
    1926                    $C$DW$T$554     .dwtag  DW_TAG_typedef
    1927                            .dwattr $C$DW$T$554, DW_AT_name("CT__ti_sysbios_knl_Swi_Module__gateObj")
    1928                            .dwattr $C$DW$T$554, DW_AT_type(*$C$DW$T$341)
    1929                            .dwattr $C$DW$T$554, DW_AT_language(DW_LANG_C)
    1930                            .dwattr $C$DW$T$554, DW_AT_decl_file("C:/ti/simplelink_cc13x0_sdk_2_30_00_20/kernel/tirtos/pac
    1931                            .dwattr $C$DW$T$554, DW_AT_decl_line(0xac)
    1932                            .dwattr $C$DW$T$554, DW_AT_decl_column(0x11)
    1933                    
    1934                    $C$DW$T$555     .dwtag  DW_TAG_typedef
    1935                            .dwattr $C$DW$T$555, DW_AT_name("CT__ti_sysbios_knl_Swi_Module__gatePrms")
    1936                            .dwattr $C$DW$T$555, DW_AT_type(*$C$DW$T$341)
    1937                            .dwattr $C$DW$T$555, DW_AT_language(DW_LANG_C)
    1938                            .dwattr $C$DW$T$555, DW_AT_decl_file("C:/ti/simplelink_cc13x0_sdk_2_30_00_20/kernel/tirtos/pac
    1939                            .dwattr $C$DW$T$555, DW_AT_decl_line(0xb5)
    1940                            .dwattr $C$DW$T$555, DW_AT_decl_column(0x11)
    1941                    
    1942                    $C$DW$T$556     .dwtag  DW_TAG_typedef
    1943                            .dwattr $C$DW$T$556, DW_AT_name("CT__ti_sysbios_knl_Swi_Module__loggerObj")
    1944                            .dwattr $C$DW$T$556, DW_AT_type(*$C$DW$T$341)
    1945                            .dwattr $C$DW$T$556, DW_AT_language(DW_LANG_C)
    1946                            .dwattr $C$DW$T$556, DW_AT_decl_file("C:/ti/simplelink_cc13x0_sdk_2_30_00_20/kernel/tirtos/pac
    1947                            .dwattr $C$DW$T$556, DW_AT_decl_line(0xd0)
    1948                            .dwattr $C$DW$T$556, DW_AT_decl_column(0x11)
    1949                    
    1950                    $C$DW$T$557     .dwtag  DW_TAG_typedef
    1951                            .dwattr $C$DW$T$557, DW_AT_name("CT__ti_sysbios_knl_Swi_Object__table")
    1952                            .dwattr $C$DW$T$557, DW_AT_type(*$C$DW$T$341)
    1953                            .dwattr $C$DW$T$557, DW_AT_language(DW_LANG_C)
    1954                            .dwattr $C$DW$T$557, DW_AT_decl_file("C:/ti/simplelink_cc13x0_sdk_2_30_00_20/kernel/tirtos/pac
    1955                            .dwattr $C$DW$T$557, DW_AT_decl_line(0x121)
    1956                            .dwattr $C$DW$T$557, DW_AT_decl_column(0x11)
    1957                    
    1958                    $C$DW$T$558     .dwtag  DW_TAG_typedef
    1959                            .dwattr $C$DW$T$558, DW_AT_name("CT__xdc_runtime_Assert_Module__gateObj")
    1960                            .dwattr $C$DW$T$558, DW_AT_type(*$C$DW$T$341)
    1961                            .dwattr $C$DW$T$558, DW_AT_language(DW_LANG_C)
    1962                            .dwattr $C$DW$T$558, DW_AT_decl_file("C:/ti/xdctools_3_50_08_24_core/packages/xdc/runtime/Asse
    1963                            .dwattr $C$DW$T$558, DW_AT_decl_line(0x69)
    1964                            .dwattr $C$DW$T$558, DW_AT_decl_column(0x11)
    1965                    
    1966                    $C$DW$T$559     .dwtag  DW_TAG_typedef
    1967                            .dwattr $C$DW$T$559, DW_AT_name("CT__xdc_runtime_Assert_Module__gatePrms")
    1968                            .dwattr $C$DW$T$559, DW_AT_type(*$C$DW$T$341)
    1969                            .dwattr $C$DW$T$559, DW_AT_language(DW_LANG_C)
    1970                            .dwattr $C$DW$T$559, DW_AT_decl_file("C:/ti/xdctools_3_50_08_24_core/packages/xdc/runtime/Asse
    1971                            .dwattr $C$DW$T$559, DW_AT_decl_line(0x72)
    1972                            .dwattr $C$DW$T$559, DW_AT_decl_column(0x11)
    1973                    
    1974                    $C$DW$T$560     .dwtag  DW_TAG_typedef
    1975                            .dwattr $C$DW$T$560, DW_AT_name("CT__xdc_runtime_Assert_Module__loggerObj")
    1976                            .dwattr $C$DW$T$560, DW_AT_type(*$C$DW$T$341)
    1977                            .dwattr $C$DW$T$560, DW_AT_language(DW_LANG_C)
    1978                            .dwattr $C$DW$T$560, DW_AT_decl_file("C:/ti/xdctools_3_50_08_24_core/packages/xdc/runtime/Asse
    1979                            .dwattr $C$DW$T$560, DW_AT_decl_line(0x8d)
TI ARM Assembler PC v18.1.3 Wed Dec 12 17:41:55 2018

Tools Copyright (c) 1996-2017 Texas Instruments Incorporated
C:\Users\THE_WO~1\AppData\Local\Temp\{050965DE-8841-4571-8C2C-9ACC23B5DBE4} PAGE   37

    1980                            .dwattr $C$DW$T$560, DW_AT_decl_column(0x11)
    1981                    
    1982                    $C$DW$T$561     .dwtag  DW_TAG_typedef
    1983                            .dwattr $C$DW$T$561, DW_AT_name("CT__xdc_runtime_Assert_Object__table")
    1984                            .dwattr $C$DW$T$561, DW_AT_type(*$C$DW$T$341)
    1985                            .dwattr $C$DW$T$561, DW_AT_language(DW_LANG_C)
    1986                            .dwattr $C$DW$T$561, DW_AT_decl_file("C:/ti/xdctools_3_50_08_24_core/packages/xdc/runtime/Asse
    1987                            .dwattr $C$DW$T$561, DW_AT_decl_line(0xde)
    1988                            .dwattr $C$DW$T$561, DW_AT_decl_column(0x11)
    1989                    
    1990                    $C$DW$T$562     .dwtag  DW_TAG_typedef
    1991                            .dwattr $C$DW$T$562, DW_AT_name("CT__xdc_runtime_Diags_Module__gateObj")
    1992                            .dwattr $C$DW$T$562, DW_AT_type(*$C$DW$T$341)
    1993                            .dwattr $C$DW$T$562, DW_AT_language(DW_LANG_C)
    1994                            .dwattr $C$DW$T$562, DW_AT_decl_file("C:/ti/xdctools_3_50_08_24_core/packages/xdc/runtime/Diag
    1995                            .dwattr $C$DW$T$562, DW_AT_decl_line(0xbe)
    1996                            .dwattr $C$DW$T$562, DW_AT_decl_column(0x11)
    1997                    
    1998                    $C$DW$T$563     .dwtag  DW_TAG_typedef
    1999                            .dwattr $C$DW$T$563, DW_AT_name("CT__xdc_runtime_Diags_Module__gatePrms")
    2000                            .dwattr $C$DW$T$563, DW_AT_type(*$C$DW$T$341)
    2001                            .dwattr $C$DW$T$563, DW_AT_language(DW_LANG_C)
    2002                            .dwattr $C$DW$T$563, DW_AT_decl_file("C:/ti/xdctools_3_50_08_24_core/packages/xdc/runtime/Diag
    2003                            .dwattr $C$DW$T$563, DW_AT_decl_line(0xc7)
    2004                            .dwattr $C$DW$T$563, DW_AT_decl_column(0x11)
    2005                    
    2006                    $C$DW$T$564     .dwtag  DW_TAG_typedef
    2007                            .dwattr $C$DW$T$564, DW_AT_name("CT__xdc_runtime_Diags_Module__loggerObj")
    2008                            .dwattr $C$DW$T$564, DW_AT_type(*$C$DW$T$341)
    2009                            .dwattr $C$DW$T$564, DW_AT_language(DW_LANG_C)
    2010                            .dwattr $C$DW$T$564, DW_AT_decl_file("C:/ti/xdctools_3_50_08_24_core/packages/xdc/runtime/Diag
    2011                            .dwattr $C$DW$T$564, DW_AT_decl_line(0xe2)
    2012                            .dwattr $C$DW$T$564, DW_AT_decl_column(0x11)
    2013                    
    2014                    $C$DW$T$565     .dwtag  DW_TAG_typedef
    2015                            .dwattr $C$DW$T$565, DW_AT_name("CT__xdc_runtime_Diags_Object__table")
    2016                            .dwattr $C$DW$T$565, DW_AT_type(*$C$DW$T$341)
    2017                            .dwattr $C$DW$T$565, DW_AT_language(DW_LANG_C)
    2018                            .dwattr $C$DW$T$565, DW_AT_decl_file("C:/ti/xdctools_3_50_08_24_core/packages/xdc/runtime/Diag
    2019                            .dwattr $C$DW$T$565, DW_AT_decl_line(0x133)
    2020                            .dwattr $C$DW$T$565, DW_AT_decl_column(0x11)
    2021                    
    2022                    $C$DW$T$566     .dwtag  DW_TAG_typedef
    2023                            .dwattr $C$DW$T$566, DW_AT_name("CT__xdc_runtime_Error_Module__gateObj")
    2024                            .dwattr $C$DW$T$566, DW_AT_type(*$C$DW$T$341)
    2025                            .dwattr $C$DW$T$566, DW_AT_language(DW_LANG_C)
    2026                            .dwattr $C$DW$T$566, DW_AT_decl_file("C:/ti/xdctools_3_50_08_24_core/packages/xdc/runtime/Erro
    2027                            .dwattr $C$DW$T$566, DW_AT_decl_line(0x8d)
    2028                            .dwattr $C$DW$T$566, DW_AT_decl_column(0x11)
    2029                    
    2030                    $C$DW$T$567     .dwtag  DW_TAG_typedef
    2031                            .dwattr $C$DW$T$567, DW_AT_name("CT__xdc_runtime_Error_Module__gatePrms")
    2032                            .dwattr $C$DW$T$567, DW_AT_type(*$C$DW$T$341)
    2033                            .dwattr $C$DW$T$567, DW_AT_language(DW_LANG_C)
    2034                            .dwattr $C$DW$T$567, DW_AT_decl_file("C:/ti/xdctools_3_50_08_24_core/packages/xdc/runtime/Erro
TI ARM Assembler PC v18.1.3 Wed Dec 12 17:41:55 2018

Tools Copyright (c) 1996-2017 Texas Instruments Incorporated
C:\Users\THE_WO~1\AppData\Local\Temp\{050965DE-8841-4571-8C2C-9ACC23B5DBE4} PAGE   38

    2035                            .dwattr $C$DW$T$567, DW_AT_decl_line(0x96)
    2036                            .dwattr $C$DW$T$567, DW_AT_decl_column(0x11)
    2037                    
    2038                    $C$DW$T$568     .dwtag  DW_TAG_typedef
    2039                            .dwattr $C$DW$T$568, DW_AT_name("CT__xdc_runtime_Error_Module__loggerObj")
    2040                            .dwattr $C$DW$T$568, DW_AT_type(*$C$DW$T$341)
    2041                            .dwattr $C$DW$T$568, DW_AT_language(DW_LANG_C)
    2042                            .dwattr $C$DW$T$568, DW_AT_decl_file("C:/ti/xdctools_3_50_08_24_core/packages/xdc/runtime/Erro
    2043                            .dwattr $C$DW$T$568, DW_AT_decl_line(0xb1)
    2044                            .dwattr $C$DW$T$568, DW_AT_decl_column(0x11)
    2045                    
    2046                    $C$DW$T$569     .dwtag  DW_TAG_typedef
    2047                            .dwattr $C$DW$T$569, DW_AT_name("CT__xdc_runtime_Error_Object__table")
    2048                            .dwattr $C$DW$T$569, DW_AT_type(*$C$DW$T$341)
    2049                            .dwattr $C$DW$T$569, DW_AT_language(DW_LANG_C)
    2050                            .dwattr $C$DW$T$569, DW_AT_decl_file("C:/ti/xdctools_3_50_08_24_core/packages/xdc/runtime/Erro
    2051                            .dwattr $C$DW$T$569, DW_AT_decl_line(0x102)
    2052                            .dwattr $C$DW$T$569, DW_AT_decl_column(0x11)
    2053                    
    2054                    $C$DW$T$570     .dwtag  DW_TAG_typedef
    2055                            .dwattr $C$DW$T$570, DW_AT_name("CT__xdc_runtime_Log_Module__gateObj")
    2056                            .dwattr $C$DW$T$570, DW_AT_type(*$C$DW$T$341)
    2057                            .dwattr $C$DW$T$570, DW_AT_language(DW_LANG_C)
    2058                            .dwattr $C$DW$T$570, DW_AT_decl_file("C:/ti/xdctools_3_50_08_24_core/packages/xdc/runtime/Log.
    2059                            .dwattr $C$DW$T$570, DW_AT_decl_line(0x7e)
    2060                            .dwattr $C$DW$T$570, DW_AT_decl_column(0x11)
    2061                    
    2062                    $C$DW$T$571     .dwtag  DW_TAG_typedef
    2063                            .dwattr $C$DW$T$571, DW_AT_name("CT__xdc_runtime_Log_Module__gatePrms")
    2064                            .dwattr $C$DW$T$571, DW_AT_type(*$C$DW$T$341)
    2065                            .dwattr $C$DW$T$571, DW_AT_language(DW_LANG_C)
    2066                            .dwattr $C$DW$T$571, DW_AT_decl_file("C:/ti/xdctools_3_50_08_24_core/packages/xdc/runtime/Log.
    2067                            .dwattr $C$DW$T$571, DW_AT_decl_line(0x87)
    2068                            .dwattr $C$DW$T$571, DW_AT_decl_column(0x11)
    2069                    
    2070                    $C$DW$T$572     .dwtag  DW_TAG_typedef
    2071                            .dwattr $C$DW$T$572, DW_AT_name("CT__xdc_runtime_Log_Module__loggerObj")
    2072                            .dwattr $C$DW$T$572, DW_AT_type(*$C$DW$T$341)
    2073                            .dwattr $C$DW$T$572, DW_AT_language(DW_LANG_C)
    2074                            .dwattr $C$DW$T$572, DW_AT_decl_file("C:/ti/xdctools_3_50_08_24_core/packages/xdc/runtime/Log.
    2075                            .dwattr $C$DW$T$572, DW_AT_decl_line(0xa2)
    2076                            .dwattr $C$DW$T$572, DW_AT_decl_column(0x11)
    2077                    
    2078                    $C$DW$T$573     .dwtag  DW_TAG_typedef
    2079                            .dwattr $C$DW$T$573, DW_AT_name("CT__xdc_runtime_Log_Object__table")
    2080                            .dwattr $C$DW$T$573, DW_AT_type(*$C$DW$T$341)
    2081                            .dwattr $C$DW$T$573, DW_AT_language(DW_LANG_C)
    2082                            .dwattr $C$DW$T$573, DW_AT_decl_file("C:/ti/xdctools_3_50_08_24_core/packages/xdc/runtime/Log.
    2083                            .dwattr $C$DW$T$573, DW_AT_decl_line(0xf3)
    2084                            .dwattr $C$DW$T$573, DW_AT_decl_column(0x11)
    2085                    
    2086                    $C$DW$T$574     .dwtag  DW_TAG_typedef
    2087                            .dwattr $C$DW$T$574, DW_AT_name("CT__xdc_runtime_Main_Module_GateProxy_Module__gateObj")
    2088                            .dwattr $C$DW$T$574, DW_AT_type(*$C$DW$T$341)
    2089                            .dwattr $C$DW$T$574, DW_AT_language(DW_LANG_C)
TI ARM Assembler PC v18.1.3 Wed Dec 12 17:41:55 2018

Tools Copyright (c) 1996-2017 Texas Instruments Incorporated
C:\Users\THE_WO~1\AppData\Local\Temp\{050965DE-8841-4571-8C2C-9ACC23B5DBE4} PAGE   39

    2090                            .dwattr $C$DW$T$574, DW_AT_decl_file("C:/ti/xdctools_3_50_08_24_core/packages/xdc/runtime/pack
    2091                            .dwattr $C$DW$T$574, DW_AT_decl_line(0x68)
    2092                            .dwattr $C$DW$T$574, DW_AT_decl_column(0x11)
    2093                    
    2094                    $C$DW$T$575     .dwtag  DW_TAG_typedef
    2095                            .dwattr $C$DW$T$575, DW_AT_name("CT__xdc_runtime_Main_Module_GateProxy_Module__gatePrms")
    2096                            .dwattr $C$DW$T$575, DW_AT_type(*$C$DW$T$341)
    2097                            .dwattr $C$DW$T$575, DW_AT_language(DW_LANG_C)
    2098                            .dwattr $C$DW$T$575, DW_AT_decl_file("C:/ti/xdctools_3_50_08_24_core/packages/xdc/runtime/pack
    2099                            .dwattr $C$DW$T$575, DW_AT_decl_line(0x71)
    2100                            .dwattr $C$DW$T$575, DW_AT_decl_column(0x11)
    2101                    
    2102                    $C$DW$T$576     .dwtag  DW_TAG_typedef
    2103                            .dwattr $C$DW$T$576, DW_AT_name("CT__xdc_runtime_Main_Module_GateProxy_Module__loggerObj")
    2104                            .dwattr $C$DW$T$576, DW_AT_type(*$C$DW$T$341)
    2105                            .dwattr $C$DW$T$576, DW_AT_language(DW_LANG_C)
    2106                            .dwattr $C$DW$T$576, DW_AT_decl_file("C:/ti/xdctools_3_50_08_24_core/packages/xdc/runtime/pack
    2107                            .dwattr $C$DW$T$576, DW_AT_decl_line(0x8c)
    2108                            .dwattr $C$DW$T$576, DW_AT_decl_column(0x11)
    2109                    
    2110                    $C$DW$T$577     .dwtag  DW_TAG_typedef
    2111                            .dwattr $C$DW$T$577, DW_AT_name("CT__xdc_runtime_Main_Module_GateProxy_Object__table")
    2112                            .dwattr $C$DW$T$577, DW_AT_type(*$C$DW$T$341)
    2113                            .dwattr $C$DW$T$577, DW_AT_language(DW_LANG_C)
    2114                            .dwattr $C$DW$T$577, DW_AT_decl_file("C:/ti/xdctools_3_50_08_24_core/packages/xdc/runtime/pack
    2115                            .dwattr $C$DW$T$577, DW_AT_decl_line(0xdd)
    2116                            .dwattr $C$DW$T$577, DW_AT_decl_column(0x11)
    2117                    
    2118                    $C$DW$T$578     .dwtag  DW_TAG_typedef
    2119                            .dwattr $C$DW$T$578, DW_AT_name("CT__xdc_runtime_Main_Module__gateObj")
    2120                            .dwattr $C$DW$T$578, DW_AT_type(*$C$DW$T$341)
    2121                            .dwattr $C$DW$T$578, DW_AT_language(DW_LANG_C)
    2122                            .dwattr $C$DW$T$578, DW_AT_decl_file("C:/ti/xdctools_3_50_08_24_core/packages/xdc/runtime/Main
    2123                            .dwattr $C$DW$T$578, DW_AT_decl_line(0x67)
    2124                            .dwattr $C$DW$T$578, DW_AT_decl_column(0x11)
    2125                    
    2126                    $C$DW$T$579     .dwtag  DW_TAG_typedef
    2127                            .dwattr $C$DW$T$579, DW_AT_name("CT__xdc_runtime_Main_Module__gatePrms")
    2128                            .dwattr $C$DW$T$579, DW_AT_type(*$C$DW$T$341)
    2129                            .dwattr $C$DW$T$579, DW_AT_language(DW_LANG_C)
    2130                            .dwattr $C$DW$T$579, DW_AT_decl_file("C:/ti/xdctools_3_50_08_24_core/packages/xdc/runtime/Main
    2131                            .dwattr $C$DW$T$579, DW_AT_decl_line(0x70)
    2132                            .dwattr $C$DW$T$579, DW_AT_decl_column(0x11)
    2133                    
    2134                    $C$DW$T$580     .dwtag  DW_TAG_typedef
    2135                            .dwattr $C$DW$T$580, DW_AT_name("CT__xdc_runtime_Main_Module__loggerObj")
    2136                            .dwattr $C$DW$T$580, DW_AT_type(*$C$DW$T$341)
    2137                            .dwattr $C$DW$T$580, DW_AT_language(DW_LANG_C)
    2138                            .dwattr $C$DW$T$580, DW_AT_decl_file("C:/ti/xdctools_3_50_08_24_core/packages/xdc/runtime/Main
    2139                            .dwattr $C$DW$T$580, DW_AT_decl_line(0x8b)
    2140                            .dwattr $C$DW$T$580, DW_AT_decl_column(0x11)
    2141                    
    2142                    $C$DW$T$581     .dwtag  DW_TAG_typedef
    2143                            .dwattr $C$DW$T$581, DW_AT_name("CT__xdc_runtime_Main_Object__table")
    2144                            .dwattr $C$DW$T$581, DW_AT_type(*$C$DW$T$341)
TI ARM Assembler PC v18.1.3 Wed Dec 12 17:41:55 2018

Tools Copyright (c) 1996-2017 Texas Instruments Incorporated
C:\Users\THE_WO~1\AppData\Local\Temp\{050965DE-8841-4571-8C2C-9ACC23B5DBE4} PAGE   40

    2145                            .dwattr $C$DW$T$581, DW_AT_language(DW_LANG_C)
    2146                            .dwattr $C$DW$T$581, DW_AT_decl_file("C:/ti/xdctools_3_50_08_24_core/packages/xdc/runtime/Main
    2147                            .dwattr $C$DW$T$581, DW_AT_decl_line(0xdc)
    2148                            .dwattr $C$DW$T$581, DW_AT_decl_column(0x11)
    2149                    
    2150                    $C$DW$T$582     .dwtag  DW_TAG_typedef
    2151                            .dwattr $C$DW$T$582, DW_AT_name("CT__xdc_runtime_Memory_HeapProxy_Module__gateObj")
    2152                            .dwattr $C$DW$T$582, DW_AT_type(*$C$DW$T$341)
    2153                            .dwattr $C$DW$T$582, DW_AT_language(DW_LANG_C)
    2154                            .dwattr $C$DW$T$582, DW_AT_decl_file("C:/ti/xdctools_3_50_08_24_core/packages/xdc/runtime/pack
    2155                            .dwattr $C$DW$T$582, DW_AT_decl_line(0x62)
    2156                            .dwattr $C$DW$T$582, DW_AT_decl_column(0x11)
    2157                    
    2158                    $C$DW$T$583     .dwtag  DW_TAG_typedef
    2159                            .dwattr $C$DW$T$583, DW_AT_name("CT__xdc_runtime_Memory_HeapProxy_Module__gatePrms")
    2160                            .dwattr $C$DW$T$583, DW_AT_type(*$C$DW$T$341)
    2161                            .dwattr $C$DW$T$583, DW_AT_language(DW_LANG_C)
    2162                            .dwattr $C$DW$T$583, DW_AT_decl_file("C:/ti/xdctools_3_50_08_24_core/packages/xdc/runtime/pack
    2163                            .dwattr $C$DW$T$583, DW_AT_decl_line(0x6b)
    2164                            .dwattr $C$DW$T$583, DW_AT_decl_column(0x11)
    2165                    
    2166                    $C$DW$T$584     .dwtag  DW_TAG_typedef
    2167                            .dwattr $C$DW$T$584, DW_AT_name("CT__xdc_runtime_Memory_HeapProxy_Module__loggerObj")
    2168                            .dwattr $C$DW$T$584, DW_AT_type(*$C$DW$T$341)
    2169                            .dwattr $C$DW$T$584, DW_AT_language(DW_LANG_C)
    2170                            .dwattr $C$DW$T$584, DW_AT_decl_file("C:/ti/xdctools_3_50_08_24_core/packages/xdc/runtime/pack
    2171                            .dwattr $C$DW$T$584, DW_AT_decl_line(0x86)
    2172                            .dwattr $C$DW$T$584, DW_AT_decl_column(0x11)
    2173                    
    2174                    $C$DW$T$585     .dwtag  DW_TAG_typedef
    2175                            .dwattr $C$DW$T$585, DW_AT_name("CT__xdc_runtime_Memory_HeapProxy_Object__table")
    2176                            .dwattr $C$DW$T$585, DW_AT_type(*$C$DW$T$341)
    2177                            .dwattr $C$DW$T$585, DW_AT_language(DW_LANG_C)
    2178                            .dwattr $C$DW$T$585, DW_AT_decl_file("C:/ti/xdctools_3_50_08_24_core/packages/xdc/runtime/pack
    2179                            .dwattr $C$DW$T$585, DW_AT_decl_line(0xd7)
    2180                            .dwattr $C$DW$T$585, DW_AT_decl_column(0x11)
    2181                    
    2182                    $C$DW$T$586     .dwtag  DW_TAG_typedef
    2183                            .dwattr $C$DW$T$586, DW_AT_name("CT__xdc_runtime_Memory_Module__gateObj")
    2184                            .dwattr $C$DW$T$586, DW_AT_type(*$C$DW$T$341)
    2185                            .dwattr $C$DW$T$586, DW_AT_language(DW_LANG_C)
    2186                            .dwattr $C$DW$T$586, DW_AT_decl_file("C:/ti/xdctools_3_50_08_24_core/packages/xdc/runtime/Memo
    2187                            .dwattr $C$DW$T$586, DW_AT_decl_line(0x75)
    2188                            .dwattr $C$DW$T$586, DW_AT_decl_column(0x11)
    2189                    
    2190                    $C$DW$T$587     .dwtag  DW_TAG_typedef
    2191                            .dwattr $C$DW$T$587, DW_AT_name("CT__xdc_runtime_Memory_Module__gatePrms")
    2192                            .dwattr $C$DW$T$587, DW_AT_type(*$C$DW$T$341)
    2193                            .dwattr $C$DW$T$587, DW_AT_language(DW_LANG_C)
    2194                            .dwattr $C$DW$T$587, DW_AT_decl_file("C:/ti/xdctools_3_50_08_24_core/packages/xdc/runtime/Memo
    2195                            .dwattr $C$DW$T$587, DW_AT_decl_line(0x7e)
    2196                            .dwattr $C$DW$T$587, DW_AT_decl_column(0x11)
    2197                    
    2198                    $C$DW$T$588     .dwtag  DW_TAG_typedef
    2199                            .dwattr $C$DW$T$588, DW_AT_name("CT__xdc_runtime_Memory_Module__loggerObj")
TI ARM Assembler PC v18.1.3 Wed Dec 12 17:41:55 2018

Tools Copyright (c) 1996-2017 Texas Instruments Incorporated
C:\Users\THE_WO~1\AppData\Local\Temp\{050965DE-8841-4571-8C2C-9ACC23B5DBE4} PAGE   41

    2200                            .dwattr $C$DW$T$588, DW_AT_type(*$C$DW$T$341)
    2201                            .dwattr $C$DW$T$588, DW_AT_language(DW_LANG_C)
    2202                            .dwattr $C$DW$T$588, DW_AT_decl_file("C:/ti/xdctools_3_50_08_24_core/packages/xdc/runtime/Memo
    2203                            .dwattr $C$DW$T$588, DW_AT_decl_line(0x99)
    2204                            .dwattr $C$DW$T$588, DW_AT_decl_column(0x11)
    2205                    
    2206                    $C$DW$T$589     .dwtag  DW_TAG_typedef
    2207                            .dwattr $C$DW$T$589, DW_AT_name("CT__xdc_runtime_Memory_Object__table")
    2208                            .dwattr $C$DW$T$589, DW_AT_type(*$C$DW$T$341)
    2209                            .dwattr $C$DW$T$589, DW_AT_language(DW_LANG_C)
    2210                            .dwattr $C$DW$T$589, DW_AT_decl_file("C:/ti/xdctools_3_50_08_24_core/packages/xdc/runtime/Memo
    2211                            .dwattr $C$DW$T$589, DW_AT_decl_line(0xea)
    2212                            .dwattr $C$DW$T$589, DW_AT_decl_column(0x11)
    2213                    
    2214                    $C$DW$T$590     .dwtag  DW_TAG_typedef
    2215                            .dwattr $C$DW$T$590, DW_AT_name("CT__xdc_runtime_Text_Module__gateObj")
    2216                            .dwattr $C$DW$T$590, DW_AT_type(*$C$DW$T$341)
    2217                            .dwattr $C$DW$T$590, DW_AT_language(DW_LANG_C)
    2218                            .dwattr $C$DW$T$590, DW_AT_decl_file("C:/ti/xdctools_3_50_08_24_core/packages/xdc/runtime/Text
    2219                            .dwattr $C$DW$T$590, DW_AT_decl_line(0x8c)
    2220                            .dwattr $C$DW$T$590, DW_AT_decl_column(0x11)
    2221                    
    2222                    $C$DW$T$591     .dwtag  DW_TAG_typedef
    2223                            .dwattr $C$DW$T$591, DW_AT_name("CT__xdc_runtime_Text_Module__gatePrms")
    2224                            .dwattr $C$DW$T$591, DW_AT_type(*$C$DW$T$341)
    2225                            .dwattr $C$DW$T$591, DW_AT_language(DW_LANG_C)
    2226                            .dwattr $C$DW$T$591, DW_AT_decl_file("C:/ti/xdctools_3_50_08_24_core/packages/xdc/runtime/Text
    2227                            .dwattr $C$DW$T$591, DW_AT_decl_line(0x95)
    2228                            .dwattr $C$DW$T$591, DW_AT_decl_column(0x11)
    2229                    
    2230                    $C$DW$T$592     .dwtag  DW_TAG_typedef
    2231                            .dwattr $C$DW$T$592, DW_AT_name("CT__xdc_runtime_Text_Module__loggerObj")
    2232                            .dwattr $C$DW$T$592, DW_AT_type(*$C$DW$T$341)
    2233                            .dwattr $C$DW$T$592, DW_AT_language(DW_LANG_C)
    2234                            .dwattr $C$DW$T$592, DW_AT_decl_file("C:/ti/xdctools_3_50_08_24_core/packages/xdc/runtime/Text
    2235                            .dwattr $C$DW$T$592, DW_AT_decl_line(0xb0)
    2236                            .dwattr $C$DW$T$592, DW_AT_decl_column(0x11)
    2237                    
    2238                    $C$DW$T$593     .dwtag  DW_TAG_typedef
    2239                            .dwattr $C$DW$T$593, DW_AT_name("CT__xdc_runtime_Text_Object__table")
    2240                            .dwattr $C$DW$T$593, DW_AT_type(*$C$DW$T$341)
    2241                            .dwattr $C$DW$T$593, DW_AT_language(DW_LANG_C)
    2242                            .dwattr $C$DW$T$593, DW_AT_decl_file("C:/ti/xdctools_3_50_08_24_core/packages/xdc/runtime/Text
    2243                            .dwattr $C$DW$T$593, DW_AT_decl_line(0x101)
    2244                            .dwattr $C$DW$T$593, DW_AT_decl_column(0x11)
    2245                    
    2246                    $C$DW$T$594     .dwtag  DW_TAG_typedef
    2247                            .dwattr $C$DW$T$594, DW_AT_name("CT__xdc_runtime_Types_Module__gateObj")
    2248                            .dwattr $C$DW$T$594, DW_AT_type(*$C$DW$T$341)
    2249                            .dwattr $C$DW$T$594, DW_AT_language(DW_LANG_C)
    2250                            .dwattr $C$DW$T$594, DW_AT_decl_file("C:/ti/xdctools_3_50_08_24_core/packages/xdc/runtime/Type
    2251                            .dwattr $C$DW$T$594, DW_AT_decl_line(0xe9)
    2252                            .dwattr $C$DW$T$594, DW_AT_decl_column(0x11)
    2253                    
    2254                    $C$DW$T$595     .dwtag  DW_TAG_typedef
TI ARM Assembler PC v18.1.3 Wed Dec 12 17:41:55 2018

Tools Copyright (c) 1996-2017 Texas Instruments Incorporated
C:\Users\THE_WO~1\AppData\Local\Temp\{050965DE-8841-4571-8C2C-9ACC23B5DBE4} PAGE   42

    2255                            .dwattr $C$DW$T$595, DW_AT_name("CT__xdc_runtime_Types_Module__gatePrms")
    2256                            .dwattr $C$DW$T$595, DW_AT_type(*$C$DW$T$341)
    2257                            .dwattr $C$DW$T$595, DW_AT_language(DW_LANG_C)
    2258                            .dwattr $C$DW$T$595, DW_AT_decl_file("C:/ti/xdctools_3_50_08_24_core/packages/xdc/runtime/Type
    2259                            .dwattr $C$DW$T$595, DW_AT_decl_line(0xf2)
    2260                            .dwattr $C$DW$T$595, DW_AT_decl_column(0x11)
    2261                    
    2262                    $C$DW$T$596     .dwtag  DW_TAG_typedef
    2263                            .dwattr $C$DW$T$596, DW_AT_name("CT__xdc_runtime_Types_Module__loggerObj")
    2264                            .dwattr $C$DW$T$596, DW_AT_type(*$C$DW$T$341)
    2265                            .dwattr $C$DW$T$596, DW_AT_language(DW_LANG_C)
    2266                            .dwattr $C$DW$T$596, DW_AT_decl_file("C:/ti/xdctools_3_50_08_24_core/packages/xdc/runtime/Type
    2267                            .dwattr $C$DW$T$596, DW_AT_decl_line(0x10d)
    2268                            .dwattr $C$DW$T$596, DW_AT_decl_column(0x11)
    2269                    
    2270                    $C$DW$T$597     .dwtag  DW_TAG_typedef
    2271                            .dwattr $C$DW$T$597, DW_AT_name("CT__xdc_runtime_Types_Object__table")
    2272                            .dwattr $C$DW$T$597, DW_AT_type(*$C$DW$T$341)
    2273                            .dwattr $C$DW$T$597, DW_AT_language(DW_LANG_C)
    2274                            .dwattr $C$DW$T$597, DW_AT_decl_file("C:/ti/xdctools_3_50_08_24_core/packages/xdc/runtime/Type
    2275                            .dwattr $C$DW$T$597, DW_AT_decl_line(0x15e)
    2276                            .dwattr $C$DW$T$597, DW_AT_decl_column(0x11)
    2277                    
    2278                    $C$DW$T$598     .dwtag  DW_TAG_typedef
    2279                            .dwattr $C$DW$T$598, DW_AT_name("Ptr")
    2280                            .dwattr $C$DW$T$598, DW_AT_type(*$C$DW$T$341)
    2281                            .dwattr $C$DW$T$598, DW_AT_language(DW_LANG_C)
    2282                            .dwattr $C$DW$T$598, DW_AT_decl_file("C:/ti/xdctools_3_50_08_24_core/packages/xdc/std.h")
    2283                            .dwattr $C$DW$T$598, DW_AT_decl_line(0xf7)
    2284                            .dwattr $C$DW$T$598, DW_AT_decl_column(0x19)
    2285                    
    2286                    $C$DW$T$599     .dwtag  DW_TAG_typedef
    2287                            .dwattr $C$DW$T$599, DW_AT_name("__T1_ti_sysbios_knl_Swi_Instance_State__hookEnv")
    2288                            .dwattr $C$DW$T$599, DW_AT_type(*$C$DW$T$341)
    2289                            .dwattr $C$DW$T$599, DW_AT_language(DW_LANG_C)
    2290                            .dwattr $C$DW$T$599, DW_AT_decl_file("C:/ti/simplelink_cc13x0_sdk_2_30_00_20/kernel/tirtos/pac
    2291                            .dwattr $C$DW$T$599, DW_AT_decl_line(0x7c)
    2292                            .dwattr $C$DW$T$599, DW_AT_decl_column(0x11)
    2293                    
    2294                    $C$DW$T$600     .dwtag  DW_TAG_typedef
    2295                            .dwattr $C$DW$T$600, DW_AT_name("__T1_ti_sysbios_knl_Swi_Struct2____hookEnv")
    2296                            .dwattr $C$DW$T$600, DW_AT_type(*$C$DW$T$341)
    2297                            .dwattr $C$DW$T$600, DW_AT_language(DW_LANG_C)
    2298                            .dwattr $C$DW$T$600, DW_AT_decl_file("C:/ti/simplelink_cc13x0_sdk_2_30_00_20/kernel/tirtos/pac
    2299                            .dwattr $C$DW$T$600, DW_AT_decl_line(0x56)
    2300                            .dwattr $C$DW$T$600, DW_AT_decl_column(0x11)
    2301                    
    2302                    $C$DW$T$342     .dwtag  DW_TAG_pointer_type
    2303                            .dwattr $C$DW$T$342, DW_AT_type(*$C$DW$T$341)
    2304                            .dwattr $C$DW$T$342, DW_AT_address_class(0x20)
    2305                    
    2306                    $C$DW$T$343     .dwtag  DW_TAG_typedef
    2307                            .dwattr $C$DW$T$343, DW_AT_name("ARRAY1_ti_sysbios_knl_Swi_Instance_State__hookEnv")
    2308                            .dwattr $C$DW$T$343, DW_AT_type(*$C$DW$T$342)
    2309                            .dwattr $C$DW$T$343, DW_AT_language(DW_LANG_C)
TI ARM Assembler PC v18.1.3 Wed Dec 12 17:41:55 2018

Tools Copyright (c) 1996-2017 Texas Instruments Incorporated
C:\Users\THE_WO~1\AppData\Local\Temp\{050965DE-8841-4571-8C2C-9ACC23B5DBE4} PAGE   43

    2310                            .dwattr $C$DW$T$343, DW_AT_decl_file("C:/ti/simplelink_cc13x0_sdk_2_30_00_20/kernel/tirtos/pac
    2311                            .dwattr $C$DW$T$343, DW_AT_decl_line(0x7d)
    2312                            .dwattr $C$DW$T$343, DW_AT_decl_column(0x12)
    2313                    
    2314                    $C$DW$T$344     .dwtag  DW_TAG_typedef
    2315                            .dwattr $C$DW$T$344, DW_AT_name("__TA_ti_sysbios_knl_Swi_Instance_State__hookEnv")
    2316                            .dwattr $C$DW$T$344, DW_AT_type(*$C$DW$T$343)
    2317                            .dwattr $C$DW$T$344, DW_AT_language(DW_LANG_C)
    2318                            .dwattr $C$DW$T$344, DW_AT_decl_file("C:/ti/simplelink_cc13x0_sdk_2_30_00_20/kernel/tirtos/pac
    2319                            .dwattr $C$DW$T$344, DW_AT_decl_line(0x7f)
    2320                            .dwattr $C$DW$T$344, DW_AT_decl_column(0x3b)
    2321                    
    2322                    $C$DW$T$601     .dwtag  DW_TAG_typedef
    2323                            .dwattr $C$DW$T$601, DW_AT_name("ARRAY1_ti_sysbios_knl_Swi_Struct2____hookEnv")
    2324                            .dwattr $C$DW$T$601, DW_AT_type(*$C$DW$T$342)
    2325                            .dwattr $C$DW$T$601, DW_AT_language(DW_LANG_C)
    2326                            .dwattr $C$DW$T$601, DW_AT_decl_file("C:/ti/simplelink_cc13x0_sdk_2_30_00_20/kernel/tirtos/pac
    2327                            .dwattr $C$DW$T$601, DW_AT_decl_line(0x57)
    2328                            .dwattr $C$DW$T$601, DW_AT_decl_column(0x12)
    2329                    
    2330                    
    2331                    $C$DW$T$386     .dwtag  DW_TAG_subroutine_type
    2332                            .dwattr $C$DW$T$386, DW_AT_type(*$C$DW$T$341)
    2333                            .dwattr $C$DW$T$386, DW_AT_language(DW_LANG_C)
    2334                    $C$DW$151       .dwtag  DW_TAG_formal_parameter
    2335                            .dwattr $C$DW$151, DW_AT_type(*$C$DW$T$3)
    2336                    
    2337                    $C$DW$152       .dwtag  DW_TAG_formal_parameter
    2338                            .dwattr $C$DW$152, DW_AT_type(*$C$DW$T$385)
    2339                    
    2340                    $C$DW$153       .dwtag  DW_TAG_formal_parameter
    2341                            .dwattr $C$DW$153, DW_AT_type(*$C$DW$T$385)
    2342                    
    2343                    $C$DW$154       .dwtag  DW_TAG_formal_parameter
    2344                            .dwattr $C$DW$154, DW_AT_type(*$C$DW$T$331)
    2345                    
    2346                            .dwendtag $C$DW$T$386
    2347                    
    2348                    $C$DW$T$387     .dwtag  DW_TAG_pointer_type
    2349                            .dwattr $C$DW$T$387, DW_AT_type(*$C$DW$T$386)
    2350                            .dwattr $C$DW$T$387, DW_AT_address_class(0x20)
    2351                    
    2352                    $C$DW$T$602     .dwtag  DW_TAG_typedef
    2353                            .dwattr $C$DW$T$602, DW_AT_name("xdc_runtime_IHeap_alloc_FxnT")
    2354                            .dwattr $C$DW$T$602, DW_AT_type(*$C$DW$T$387)
    2355                            .dwattr $C$DW$T$602, DW_AT_language(DW_LANG_C)
    2356                            .dwattr $C$DW$T$602, DW_AT_decl_file("C:/ti/xdctools_3_50_08_24_core/packages/xdc/runtime/IHea
    2357                            .dwattr $C$DW$T$602, DW_AT_decl_line(0xb0)
    2358                            .dwattr $C$DW$T$602, DW_AT_decl_column(0x13)
    2359                    
    2360                    
    2361                    $C$DW$T$430     .dwtag  DW_TAG_subroutine_type
    2362                            .dwattr $C$DW$T$430, DW_AT_type(*$C$DW$T$341)
    2363                            .dwattr $C$DW$T$430, DW_AT_language(DW_LANG_C)
    2364                    $C$DW$155       .dwtag  DW_TAG_formal_parameter
TI ARM Assembler PC v18.1.3 Wed Dec 12 17:41:55 2018

Tools Copyright (c) 1996-2017 Texas Instruments Incorporated
C:\Users\THE_WO~1\AppData\Local\Temp\{050965DE-8841-4571-8C2C-9ACC23B5DBE4} PAGE   44

    2365                            .dwattr $C$DW$155, DW_AT_type(*$C$DW$T$429)
    2366                    
    2367                    $C$DW$156       .dwtag  DW_TAG_formal_parameter
    2368                            .dwattr $C$DW$156, DW_AT_type(*$C$DW$T$385)
    2369                    
    2370                    $C$DW$157       .dwtag  DW_TAG_formal_parameter
    2371                            .dwattr $C$DW$157, DW_AT_type(*$C$DW$T$385)
    2372                    
    2373                    $C$DW$158       .dwtag  DW_TAG_formal_parameter
    2374                            .dwattr $C$DW$158, DW_AT_type(*$C$DW$T$331)
    2375                    
    2376                            .dwendtag $C$DW$T$430
    2377                    
    2378                    $C$DW$T$431     .dwtag  DW_TAG_pointer_type
    2379                            .dwattr $C$DW$T$431, DW_AT_type(*$C$DW$T$430)
    2380                            .dwattr $C$DW$T$431, DW_AT_address_class(0x20)
    2381                    
    2382                    
    2383                    $C$DW$T$473     .dwtag  DW_TAG_subroutine_type
    2384                            .dwattr $C$DW$T$473, DW_AT_type(*$C$DW$T$341)
    2385                            .dwattr $C$DW$T$473, DW_AT_language(DW_LANG_C)
    2386                    $C$DW$159       .dwtag  DW_TAG_formal_parameter
    2387                            .dwattr $C$DW$159, DW_AT_type(*$C$DW$T$469)
    2388                    
    2389                    $C$DW$160       .dwtag  DW_TAG_formal_parameter
    2390                            .dwattr $C$DW$160, DW_AT_type(*$C$DW$T$472)
    2391                    
    2392                    $C$DW$161       .dwtag  DW_TAG_formal_parameter
    2393                            .dwattr $C$DW$161, DW_AT_type(*$C$DW$T$385)
    2394                    
    2395                    $C$DW$162       .dwtag  DW_TAG_formal_parameter
    2396                            .dwattr $C$DW$162, DW_AT_type(*$C$DW$T$331)
    2397                    
    2398                            .dwendtag $C$DW$T$473
    2399                    
    2400                    $C$DW$T$474     .dwtag  DW_TAG_pointer_type
    2401                            .dwattr $C$DW$T$474, DW_AT_type(*$C$DW$T$473)
    2402                            .dwattr $C$DW$T$474, DW_AT_address_class(0x20)
    2403                    
    2404                    $C$DW$T$346     .dwtag  DW_TAG_const_type
    2405                            .dwattr $C$DW$T$346, DW_AT_type(*$C$DW$T$341)
    2406                    
    2407                    $C$DW$T$347     .dwtag  DW_TAG_pointer_type
    2408                            .dwattr $C$DW$T$347, DW_AT_type(*$C$DW$T$346)
    2409                            .dwattr $C$DW$T$347, DW_AT_address_class(0x20)
    2410                    
    2411                    $C$DW$T$603     .dwtag  DW_TAG_typedef
    2412                            .dwattr $C$DW$T$603, DW_AT_name("CARRAY1_ti_sysbios_knl_Swi_Instance_State__hookEnv")
    2413                            .dwattr $C$DW$T$603, DW_AT_type(*$C$DW$T$347)
    2414                            .dwattr $C$DW$T$603, DW_AT_language(DW_LANG_C)
    2415                            .dwattr $C$DW$T$603, DW_AT_decl_file("C:/ti/simplelink_cc13x0_sdk_2_30_00_20/kernel/tirtos/pac
    2416                            .dwattr $C$DW$T$603, DW_AT_decl_line(0x7e)
    2417                            .dwattr $C$DW$T$603, DW_AT_decl_column(0x18)
    2418                    
    2419                    $C$DW$T$348     .dwtag  DW_TAG_typedef
TI ARM Assembler PC v18.1.3 Wed Dec 12 17:41:55 2018

Tools Copyright (c) 1996-2017 Texas Instruments Incorporated
C:\Users\THE_WO~1\AppData\Local\Temp\{050965DE-8841-4571-8C2C-9ACC23B5DBE4} PAGE   45

    2420                            .dwattr $C$DW$T$348, DW_AT_name("CARRAY1_ti_sysbios_knl_Swi_Struct2____hookEnv")
    2421                            .dwattr $C$DW$T$348, DW_AT_type(*$C$DW$T$347)
    2422                            .dwattr $C$DW$T$348, DW_AT_language(DW_LANG_C)
    2423                            .dwattr $C$DW$T$348, DW_AT_decl_file("C:/ti/simplelink_cc13x0_sdk_2_30_00_20/kernel/tirtos/pac
    2424                            .dwattr $C$DW$T$348, DW_AT_decl_line(0x58)
    2425                            .dwattr $C$DW$T$348, DW_AT_decl_column(0x18)
    2426                    
    2427                    $C$DW$T$349     .dwtag  DW_TAG_typedef
    2428                            .dwattr $C$DW$T$349, DW_AT_name("__TA_ti_sysbios_knl_Swi_Struct2____hookEnv")
    2429                            .dwattr $C$DW$T$349, DW_AT_type(*$C$DW$T$348)
    2430                            .dwattr $C$DW$T$349, DW_AT_language(DW_LANG_C)
    2431                            .dwattr $C$DW$T$349, DW_AT_decl_file("C:/ti/simplelink_cc13x0_sdk_2_30_00_20/kernel/tirtos/pac
    2432                            .dwattr $C$DW$T$349, DW_AT_decl_line(0x59)
    2433                            .dwattr $C$DW$T$349, DW_AT_decl_column(0x37)
    2434                    
    2435                    
    2436                    $C$DW$T$157     .dwtag  DW_TAG_subroutine_type
    2437                            .dwattr $C$DW$T$157, DW_AT_language(DW_LANG_C)
    2438                            .dwendtag $C$DW$T$157
    2439                    
    2440                    $C$DW$T$158     .dwtag  DW_TAG_pointer_type
    2441                            .dwattr $C$DW$T$158, DW_AT_type(*$C$DW$T$157)
    2442                            .dwattr $C$DW$T$158, DW_AT_address_class(0x20)
    2443                    
    2444                    $C$DW$T$177     .dwtag  DW_TAG_typedef
    2445                            .dwattr $C$DW$T$177, DW_AT_name("FPTR_HFSOURCESAFESWITCH_T")
    2446                            .dwattr $C$DW$T$177, DW_AT_type(*$C$DW$T$158)
    2447                            .dwattr $C$DW$T$177, DW_AT_language(DW_LANG_C)
    2448                            .dwattr $C$DW$T$177, DW_AT_decl_file("C:\ti\simplelink_cc13x0_sdk_2_30_00_20\source\ti\devices
    2449                            .dwattr $C$DW$T$177, DW_AT_decl_line(0x5f)
    2450                            .dwattr $C$DW$T$177, DW_AT_decl_column(0x19)
    2451                    
    2452                    $C$DW$T$159     .dwtag  DW_TAG_typedef
    2453                            .dwattr $C$DW$T$159, DW_AT_name("FPTR_RESETDEV_T")
    2454                            .dwattr $C$DW$T$159, DW_AT_type(*$C$DW$T$158)
    2455                            .dwattr $C$DW$T$159, DW_AT_language(DW_LANG_C)
    2456                            .dwattr $C$DW$T$159, DW_AT_decl_file("C:\ti\simplelink_cc13x0_sdk_2_30_00_20\source\ti\devices
    2457                            .dwattr $C$DW$T$159, DW_AT_decl_line(0x4d)
    2458                            .dwattr $C$DW$T$159, DW_AT_decl_column(0x19)
    2459                    
    2460                    $C$DW$T$604     .dwtag  DW_TAG_typedef
    2461                            .dwattr $C$DW$T$604, DW_AT_name("FPTR_VOID_VOID_T")
    2462                            .dwattr $C$DW$T$604, DW_AT_type(*$C$DW$T$158)
    2463                            .dwattr $C$DW$T$604, DW_AT_language(DW_LANG_C)
    2464                            .dwattr $C$DW$T$604, DW_AT_decl_file("C:\ti\simplelink_cc13x0_sdk_2_30_00_20\source\ti\devices
    2465                            .dwattr $C$DW$T$604, DW_AT_decl_line(0x33)
    2466                            .dwattr $C$DW$T$604, DW_AT_decl_column(0x11)
    2467                    
    2468                    $C$DW$T$605     .dwtag  DW_TAG_typedef
    2469                            .dwattr $C$DW$T$605, DW_AT_name("ti_sysbios_interfaces_ITimer_startup_FxnT")
    2470                            .dwattr $C$DW$T$605, DW_AT_type(*$C$DW$T$158)
    2471                            .dwattr $C$DW$T$605, DW_AT_language(DW_LANG_C)
    2472                            .dwattr $C$DW$T$605, DW_AT_decl_file("C:/ti/simplelink_cc13x0_sdk_2_30_00_20/kernel/tirtos/pac
    2473                            .dwattr $C$DW$T$605, DW_AT_decl_line(0x164)
    2474                            .dwattr $C$DW$T$605, DW_AT_decl_column(0x14)
TI ARM Assembler PC v18.1.3 Wed Dec 12 17:41:55 2018

Tools Copyright (c) 1996-2017 Texas Instruments Incorporated
C:\Users\THE_WO~1\AppData\Local\Temp\{050965DE-8841-4571-8C2C-9ACC23B5DBE4} PAGE   46

    2475                    
    2476                    
    2477                    $C$DW$T$173     .dwtag  DW_TAG_subroutine_type
    2478                            .dwattr $C$DW$T$173, DW_AT_language(DW_LANG_C)
    2479                    $C$DW$163       .dwtag  DW_TAG_formal_parameter
    2480                            .dwattr $C$DW$163, DW_AT_type(*$C$DW$T$141)
    2481                    
    2482                            .dwendtag $C$DW$T$173
    2483                    
    2484                    $C$DW$T$174     .dwtag  DW_TAG_pointer_type
    2485                            .dwattr $C$DW$T$174, DW_AT_type(*$C$DW$T$173)
    2486                            .dwattr $C$DW$T$174, DW_AT_address_class(0x20)
    2487                    
    2488                    $C$DW$T$175     .dwtag  DW_TAG_typedef
    2489                            .dwattr $C$DW$T$175, DW_AT_name("FPTR_RESERVED4_T")
    2490                            .dwattr $C$DW$T$175, DW_AT_type(*$C$DW$T$174)
    2491                            .dwattr $C$DW$T$175, DW_AT_language(DW_LANG_C)
    2492                            .dwattr $C$DW$T$175, DW_AT_decl_file("C:\ti\simplelink_cc13x0_sdk_2_30_00_20\source\ti\devices
    2493                            .dwattr $C$DW$T$175, DW_AT_decl_line(0x61)
    2494                            .dwattr $C$DW$T$175, DW_AT_decl_column(0x19)
    2495                    
    2496                    $C$DW$T$176     .dwtag  DW_TAG_typedef
    2497                            .dwattr $C$DW$T$176, DW_AT_name("FPTR_RESERVED5_T")
    2498                            .dwattr $C$DW$T$176, DW_AT_type(*$C$DW$T$174)
    2499                            .dwattr $C$DW$T$176, DW_AT_language(DW_LANG_C)
    2500                            .dwattr $C$DW$T$176, DW_AT_decl_file("C:\ti\simplelink_cc13x0_sdk_2_30_00_20\source\ti\devices
    2501                            .dwattr $C$DW$T$176, DW_AT_decl_line(0x63)
    2502                            .dwattr $C$DW$T$176, DW_AT_decl_column(0x19)
    2503                    
    2504                    
    2505                    $C$DW$T$178     .dwtag  DW_TAG_subroutine_type
    2506                            .dwattr $C$DW$T$178, DW_AT_language(DW_LANG_C)
    2507                    $C$DW$164       .dwtag  DW_TAG_formal_parameter
    2508                            .dwattr $C$DW$164, DW_AT_type(*$C$DW$T$143)
    2509                    
    2510                            .dwendtag $C$DW$T$178
    2511                    
    2512                    $C$DW$T$179     .dwtag  DW_TAG_pointer_type
    2513                            .dwattr $C$DW$T$179, DW_AT_type(*$C$DW$T$178)
    2514                            .dwattr $C$DW$T$179, DW_AT_address_class(0x20)
    2515                    
    2516                    $C$DW$T$182     .dwtag  DW_TAG_typedef
    2517                            .dwattr $C$DW$T$182, DW_AT_name("FPTR_ADCCOMPBIN_T")
    2518                            .dwattr $C$DW$T$182, DW_AT_type(*$C$DW$T$179)
    2519                            .dwattr $C$DW$T$182, DW_AT_language(DW_LANG_C)
    2520                            .dwattr $C$DW$T$182, DW_AT_decl_file("C:\ti\simplelink_cc13x0_sdk_2_30_00_20\source\ti\devices
    2521                            .dwattr $C$DW$T$182, DW_AT_decl_line(0x69)
    2522                            .dwattr $C$DW$T$182, DW_AT_decl_column(0x19)
    2523                    
    2524                    $C$DW$T$180     .dwtag  DW_TAG_typedef
    2525                            .dwattr $C$DW$T$180, DW_AT_name("FPTR_COMPAIN_T")
    2526                            .dwattr $C$DW$T$180, DW_AT_type(*$C$DW$T$179)
    2527                            .dwattr $C$DW$T$180, DW_AT_language(DW_LANG_C)
    2528                            .dwattr $C$DW$T$180, DW_AT_decl_file("C:\ti\simplelink_cc13x0_sdk_2_30_00_20\source\ti\devices
    2529                            .dwattr $C$DW$T$180, DW_AT_decl_line(0x65)
TI ARM Assembler PC v18.1.3 Wed Dec 12 17:41:55 2018

Tools Copyright (c) 1996-2017 Texas Instruments Incorporated
C:\Users\THE_WO~1\AppData\Local\Temp\{050965DE-8841-4571-8C2C-9ACC23B5DBE4} PAGE   47

    2530                            .dwattr $C$DW$T$180, DW_AT_decl_column(0x19)
    2531                    
    2532                    $C$DW$T$181     .dwtag  DW_TAG_typedef
    2533                            .dwattr $C$DW$T$181, DW_AT_name("FPTR_COMPAREF_T")
    2534                            .dwattr $C$DW$T$181, DW_AT_type(*$C$DW$T$179)
    2535                            .dwattr $C$DW$T$181, DW_AT_language(DW_LANG_C)
    2536                            .dwattr $C$DW$T$181, DW_AT_decl_file("C:\ti\simplelink_cc13x0_sdk_2_30_00_20\source\ti\devices
    2537                            .dwattr $C$DW$T$181, DW_AT_decl_line(0x67)
    2538                            .dwattr $C$DW$T$181, DW_AT_decl_column(0x19)
    2539                    
    2540                    $C$DW$T$183     .dwtag  DW_TAG_typedef
    2541                            .dwattr $C$DW$T$183, DW_AT_name("FPTR_COMPBREF_T")
    2542                            .dwattr $C$DW$T$183, DW_AT_type(*$C$DW$T$179)
    2543                            .dwattr $C$DW$T$183, DW_AT_language(DW_LANG_C)
    2544                            .dwattr $C$DW$T$183, DW_AT_decl_file("C:\ti\simplelink_cc13x0_sdk_2_30_00_20\source\ti\devices
    2545                            .dwattr $C$DW$T$183, DW_AT_decl_line(0x6b)
    2546                            .dwattr $C$DW$T$183, DW_AT_decl_column(0x19)
    2547                    
    2548                    $C$DW$T$606     .dwtag  DW_TAG_typedef
    2549                            .dwattr $C$DW$T$606, DW_AT_name("FPTR_VOID_UINT8_T")
    2550                            .dwattr $C$DW$T$606, DW_AT_type(*$C$DW$T$179)
    2551                            .dwattr $C$DW$T$606, DW_AT_language(DW_LANG_C)
    2552                            .dwattr $C$DW$T$606, DW_AT_decl_file("C:\ti\simplelink_cc13x0_sdk_2_30_00_20\source\ti\devices
    2553                            .dwattr $C$DW$T$606, DW_AT_decl_line(0x34)
    2554                            .dwattr $C$DW$T$606, DW_AT_decl_column(0x11)
    2555                    
    2556                    
    2557                    $C$DW$T$211     .dwtag  DW_TAG_subroutine_type
    2558                            .dwattr $C$DW$T$211, DW_AT_language(DW_LANG_C)
    2559                    $C$DW$165       .dwtag  DW_TAG_formal_parameter
    2560                            .dwattr $C$DW$165, DW_AT_type(*$C$DW$T$209)
    2561                    
    2562                    $C$DW$166       .dwtag  DW_TAG_formal_parameter
    2563                            .dwattr $C$DW$166, DW_AT_type(*$C$DW$T$210)
    2564                    
    2565                            .dwendtag $C$DW$T$211
    2566                    
    2567                    $C$DW$T$212     .dwtag  DW_TAG_pointer_type
    2568                            .dwattr $C$DW$T$212, DW_AT_type(*$C$DW$T$211)
    2569                            .dwattr $C$DW$T$212, DW_AT_address_class(0x20)
    2570                    
    2571                    $C$DW$T$213     .dwtag  DW_TAG_typedef
    2572                            .dwattr $C$DW$T$213, DW_AT_name("PIN_IntCb")
    2573                            .dwattr $C$DW$T$213, DW_AT_type(*$C$DW$T$212)
    2574                            .dwattr $C$DW$T$213, DW_AT_language(DW_LANG_C)
    2575                            .dwattr $C$DW$T$213, DW_AT_decl_file("C:/ti/simplelink_cc13x0_sdk_2_30_00_20/source/ti/drivers
    2576                            .dwattr $C$DW$T$213, DW_AT_decl_line(0x2bf)
    2577                            .dwattr $C$DW$T$213, DW_AT_decl_column(0x10)
    2578                    
    2579                    
    2580                    $C$DW$T$222     .dwtag  DW_TAG_subroutine_type
    2581                            .dwattr $C$DW$T$222, DW_AT_language(DW_LANG_C)
    2582                    $C$DW$167       .dwtag  DW_TAG_formal_parameter
    2583                            .dwattr $C$DW$167, DW_AT_type(*$C$DW$T$221)
    2584                    
TI ARM Assembler PC v18.1.3 Wed Dec 12 17:41:55 2018

Tools Copyright (c) 1996-2017 Texas Instruments Incorporated
C:\Users\THE_WO~1\AppData\Local\Temp\{050965DE-8841-4571-8C2C-9ACC23B5DBE4} PAGE   48

    2585                            .dwendtag $C$DW$T$222
    2586                    
    2587                    $C$DW$T$223     .dwtag  DW_TAG_pointer_type
    2588                            .dwattr $C$DW$T$223, DW_AT_type(*$C$DW$T$222)
    2589                            .dwattr $C$DW$T$223, DW_AT_address_class(0x20)
    2590                    
    2591                    $C$DW$T$607     .dwtag  DW_TAG_typedef
    2592                            .dwattr $C$DW$T$607, DW_AT_name("CT__ti_sysbios_knl_Clock_doTickFunc")
    2593                            .dwattr $C$DW$T$607, DW_AT_type(*$C$DW$T$223)
    2594                            .dwattr $C$DW$T$607, DW_AT_language(DW_LANG_C)
    2595                            .dwattr $C$DW$T$607, DW_AT_decl_file("C:/ti/simplelink_cc13x0_sdk_2_30_00_20/kernel/tirtos/pac
    2596                            .dwattr $C$DW$T$607, DW_AT_decl_line(0x170)
    2597                            .dwattr $C$DW$T$607, DW_AT_decl_column(0x14)
    2598                    
    2599                    $C$DW$T$224     .dwtag  DW_TAG_typedef
    2600                            .dwattr $C$DW$T$224, DW_AT_name("ti_sysbios_interfaces_ITimer_FuncPtr")
    2601                            .dwattr $C$DW$T$224, DW_AT_type(*$C$DW$T$223)
    2602                            .dwattr $C$DW$T$224, DW_AT_language(DW_LANG_C)
    2603                            .dwattr $C$DW$T$224, DW_AT_decl_file("C:/ti/simplelink_cc13x0_sdk_2_30_00_20/kernel/tirtos/pac
    2604                            .dwattr $C$DW$T$224, DW_AT_decl_line(0x42)
    2605                            .dwattr $C$DW$T$224, DW_AT_decl_column(0x14)
    2606                    
    2607                    
    2608                    $C$DW$T$256     .dwtag  DW_TAG_subroutine_type
    2609                            .dwattr $C$DW$T$256, DW_AT_type(*$C$DW$T$224)
    2610                            .dwattr $C$DW$T$256, DW_AT_language(DW_LANG_C)
    2611                    $C$DW$168       .dwtag  DW_TAG_formal_parameter
    2612                            .dwattr $C$DW$168, DW_AT_type(*$C$DW$T$3)
    2613                    
    2614                    $C$DW$169       .dwtag  DW_TAG_formal_parameter
    2615                            .dwattr $C$DW$169, DW_AT_type(*$C$DW$T$255)
    2616                    
    2617                            .dwendtag $C$DW$T$256
    2618                    
    2619                    $C$DW$T$257     .dwtag  DW_TAG_pointer_type
    2620                            .dwattr $C$DW$T$257, DW_AT_type(*$C$DW$T$256)
    2621                            .dwattr $C$DW$T$257, DW_AT_address_class(0x20)
    2622                    
    2623                    $C$DW$T$608     .dwtag  DW_TAG_typedef
    2624                            .dwattr $C$DW$T$608, DW_AT_name("ti_sysbios_interfaces_ITimer_getFunc_FxnT")
    2625                            .dwattr $C$DW$T$608, DW_AT_type(*$C$DW$T$257)
    2626                            .dwattr $C$DW$T$608, DW_AT_language(DW_LANG_C)
    2627                            .dwattr $C$DW$T$608, DW_AT_decl_file("C:/ti/simplelink_cc13x0_sdk_2_30_00_20/kernel/tirtos/pac
    2628                            .dwattr $C$DW$T$608, DW_AT_decl_line(0x1b4)
    2629                            .dwattr $C$DW$T$608, DW_AT_decl_column(0x30)
    2630                    
    2631                    
    2632                    $C$DW$T$302     .dwtag  DW_TAG_subroutine_type
    2633                            .dwattr $C$DW$T$302, DW_AT_type(*$C$DW$T$224)
    2634                            .dwattr $C$DW$T$302, DW_AT_language(DW_LANG_C)
    2635                    $C$DW$170       .dwtag  DW_TAG_formal_parameter
    2636                            .dwattr $C$DW$170, DW_AT_type(*$C$DW$T$291)
    2637                    
    2638                    $C$DW$171       .dwtag  DW_TAG_formal_parameter
    2639                            .dwattr $C$DW$171, DW_AT_type(*$C$DW$T$255)
TI ARM Assembler PC v18.1.3 Wed Dec 12 17:41:55 2018

Tools Copyright (c) 1996-2017 Texas Instruments Incorporated
C:\Users\THE_WO~1\AppData\Local\Temp\{050965DE-8841-4571-8C2C-9ACC23B5DBE4} PAGE   49

    2640                    
    2641                            .dwendtag $C$DW$T$302
    2642                    
    2643                    $C$DW$T$303     .dwtag  DW_TAG_pointer_type
    2644                            .dwattr $C$DW$T$303, DW_AT_type(*$C$DW$T$302)
    2645                            .dwattr $C$DW$T$303, DW_AT_address_class(0x20)
    2646                    
    2647                    $C$DW$T$609     .dwtag  DW_TAG_typedef
    2648                            .dwattr $C$DW$T$609, DW_AT_name("ti_sysbios_knl_Clock_TimerProxy_FuncPtr")
    2649                            .dwattr $C$DW$T$609, DW_AT_type(*$C$DW$T$224)
    2650                            .dwattr $C$DW$T$609, DW_AT_language(DW_LANG_C)
    2651                            .dwattr $C$DW$T$609, DW_AT_decl_file("C:/ti/simplelink_cc13x0_sdk_2_30_00_20/kernel/tirtos/pac
    2652                            .dwattr $C$DW$T$609, DW_AT_decl_line(0x43)
    2653                            .dwattr $C$DW$T$609, DW_AT_decl_column(0x2e)
    2654                    
    2655                    $C$DW$T$280     .dwtag  DW_TAG_typedef
    2656                            .dwattr $C$DW$T$280, DW_AT_name("ti_sysbios_knl_Clock_FuncPtr")
    2657                            .dwattr $C$DW$T$280, DW_AT_type(*$C$DW$T$223)
    2658                            .dwattr $C$DW$T$280, DW_AT_language(DW_LANG_C)
    2659                            .dwattr $C$DW$T$280, DW_AT_decl_file("C:/ti/simplelink_cc13x0_sdk_2_30_00_20/kernel/tirtos/pac
    2660                            .dwattr $C$DW$T$280, DW_AT_decl_line(0x59)
    2661                            .dwattr $C$DW$T$280, DW_AT_decl_column(0x14)
    2662                    
    2663                    
    2664                    $C$DW$T$244     .dwtag  DW_TAG_subroutine_type
    2665                            .dwattr $C$DW$T$244, DW_AT_language(DW_LANG_C)
    2666                    $C$DW$172       .dwtag  DW_TAG_formal_parameter
    2667                            .dwattr $C$DW$172, DW_AT_type(*$C$DW$T$3)
    2668                    
    2669                    $C$DW$173       .dwtag  DW_TAG_formal_parameter
    2670                            .dwattr $C$DW$173, DW_AT_type(*$C$DW$T$241)
    2671                    
    2672                            .dwendtag $C$DW$T$244
    2673                    
    2674                    $C$DW$T$245     .dwtag  DW_TAG_pointer_type
    2675                            .dwattr $C$DW$T$245, DW_AT_type(*$C$DW$T$244)
    2676                            .dwattr $C$DW$T$245, DW_AT_address_class(0x20)
    2677                    
    2678                    $C$DW$T$610     .dwtag  DW_TAG_typedef
    2679                            .dwattr $C$DW$T$610, DW_AT_name("ti_sysbios_interfaces_ITimer_setNextTick_FxnT")
    2680                            .dwattr $C$DW$T$610, DW_AT_type(*$C$DW$T$245)
    2681                            .dwattr $C$DW$T$610, DW_AT_language(DW_LANG_C)
    2682                            .dwattr $C$DW$T$610, DW_AT_decl_file("C:/ti/simplelink_cc13x0_sdk_2_30_00_20/kernel/tirtos/pac
    2683                            .dwattr $C$DW$T$610, DW_AT_decl_line(0x174)
    2684                            .dwattr $C$DW$T$610, DW_AT_decl_column(0x14)
    2685                    
    2686                    $C$DW$T$611     .dwtag  DW_TAG_typedef
    2687                            .dwattr $C$DW$T$611, DW_AT_name("ti_sysbios_interfaces_ITimer_setPeriod_FxnT")
    2688                            .dwattr $C$DW$T$611, DW_AT_type(*$C$DW$T$245)
    2689                            .dwattr $C$DW$T$611, DW_AT_language(DW_LANG_C)
    2690                            .dwattr $C$DW$T$611, DW_AT_decl_file("C:/ti/simplelink_cc13x0_sdk_2_30_00_20/kernel/tirtos/pac
    2691                            .dwattr $C$DW$T$611, DW_AT_decl_line(0x18c)
    2692                            .dwattr $C$DW$T$611, DW_AT_decl_column(0x14)
    2693                    
    2694                    $C$DW$T$612     .dwtag  DW_TAG_typedef
TI ARM Assembler PC v18.1.3 Wed Dec 12 17:41:55 2018

Tools Copyright (c) 1996-2017 Texas Instruments Incorporated
C:\Users\THE_WO~1\AppData\Local\Temp\{050965DE-8841-4571-8C2C-9ACC23B5DBE4} PAGE   50

    2695                            .dwattr $C$DW$T$612, DW_AT_name("ti_sysbios_interfaces_ITimer_trigger_FxnT")
    2696                            .dwattr $C$DW$T$612, DW_AT_type(*$C$DW$T$245)
    2697                            .dwattr $C$DW$T$612, DW_AT_language(DW_LANG_C)
    2698                            .dwattr $C$DW$T$612, DW_AT_decl_file("C:/ti/simplelink_cc13x0_sdk_2_30_00_20/kernel/tirtos/pac
    2699                            .dwattr $C$DW$T$612, DW_AT_decl_line(0x1c4)
    2700                            .dwattr $C$DW$T$612, DW_AT_decl_column(0x14)
    2701                    
    2702                    
    2703                    $C$DW$T$246     .dwtag  DW_TAG_subroutine_type
    2704                            .dwattr $C$DW$T$246, DW_AT_language(DW_LANG_C)
    2705                    $C$DW$174       .dwtag  DW_TAG_formal_parameter
    2706                            .dwattr $C$DW$174, DW_AT_type(*$C$DW$T$3)
    2707                    
    2708                            .dwendtag $C$DW$T$246
    2709                    
    2710                    $C$DW$T$247     .dwtag  DW_TAG_pointer_type
    2711                            .dwattr $C$DW$T$247, DW_AT_type(*$C$DW$T$246)
    2712                            .dwattr $C$DW$T$247, DW_AT_address_class(0x20)
    2713                    
    2714                    $C$DW$T$613     .dwtag  DW_TAG_typedef
    2715                            .dwattr $C$DW$T$613, DW_AT_name("ti_sysbios_interfaces_ITimer_start_FxnT")
    2716                            .dwattr $C$DW$T$613, DW_AT_type(*$C$DW$T$247)
    2717                            .dwattr $C$DW$T$613, DW_AT_language(DW_LANG_C)
    2718                            .dwattr $C$DW$T$613, DW_AT_decl_file("C:/ti/simplelink_cc13x0_sdk_2_30_00_20/kernel/tirtos/pac
    2719                            .dwattr $C$DW$T$613, DW_AT_decl_line(0x17c)
    2720                            .dwattr $C$DW$T$613, DW_AT_decl_column(0x14)
    2721                    
    2722                    $C$DW$T$614     .dwtag  DW_TAG_typedef
    2723                            .dwattr $C$DW$T$614, DW_AT_name("ti_sysbios_interfaces_ITimer_stop_FxnT")
    2724                            .dwattr $C$DW$T$614, DW_AT_type(*$C$DW$T$247)
    2725                            .dwattr $C$DW$T$614, DW_AT_language(DW_LANG_C)
    2726                            .dwattr $C$DW$T$614, DW_AT_decl_file("C:/ti/simplelink_cc13x0_sdk_2_30_00_20/kernel/tirtos/pac
    2727                            .dwattr $C$DW$T$614, DW_AT_decl_line(0x184)
    2728                            .dwattr $C$DW$T$614, DW_AT_decl_column(0x14)
    2729                    
    2730                    
    2731                    $C$DW$T$253     .dwtag  DW_TAG_subroutine_type
    2732                            .dwattr $C$DW$T$253, DW_AT_language(DW_LANG_C)
    2733                    $C$DW$175       .dwtag  DW_TAG_formal_parameter
    2734                            .dwattr $C$DW$175, DW_AT_type(*$C$DW$T$3)
    2735                    
    2736                    $C$DW$176       .dwtag  DW_TAG_formal_parameter
    2737                            .dwattr $C$DW$176, DW_AT_type(*$C$DW$T$252)
    2738                    
    2739                            .dwendtag $C$DW$T$253
    2740                    
    2741                    $C$DW$T$254     .dwtag  DW_TAG_pointer_type
    2742                            .dwattr $C$DW$T$254, DW_AT_type(*$C$DW$T$253)
    2743                            .dwattr $C$DW$T$254, DW_AT_address_class(0x20)
    2744                    
    2745                    $C$DW$T$615     .dwtag  DW_TAG_typedef
    2746                            .dwattr $C$DW$T$615, DW_AT_name("ti_sysbios_interfaces_ITimer_getFreq_FxnT")
    2747                            .dwattr $C$DW$T$615, DW_AT_type(*$C$DW$T$254)
    2748                            .dwattr $C$DW$T$615, DW_AT_language(DW_LANG_C)
    2749                            .dwattr $C$DW$T$615, DW_AT_decl_file("C:/ti/simplelink_cc13x0_sdk_2_30_00_20/kernel/tirtos/pac
TI ARM Assembler PC v18.1.3 Wed Dec 12 17:41:55 2018

Tools Copyright (c) 1996-2017 Texas Instruments Incorporated
C:\Users\THE_WO~1\AppData\Local\Temp\{050965DE-8841-4571-8C2C-9ACC23B5DBE4} PAGE   51

    2750                            .dwattr $C$DW$T$615, DW_AT_decl_line(0x1ac)
    2751                            .dwattr $C$DW$T$615, DW_AT_decl_column(0x14)
    2752                    
    2753                    
    2754                    $C$DW$T$258     .dwtag  DW_TAG_subroutine_type
    2755                            .dwattr $C$DW$T$258, DW_AT_language(DW_LANG_C)
    2756                    $C$DW$177       .dwtag  DW_TAG_formal_parameter
    2757                            .dwattr $C$DW$177, DW_AT_type(*$C$DW$T$3)
    2758                    
    2759                    $C$DW$178       .dwtag  DW_TAG_formal_parameter
    2760                            .dwattr $C$DW$178, DW_AT_type(*$C$DW$T$224)
    2761                    
    2762                    $C$DW$179       .dwtag  DW_TAG_formal_parameter
    2763                            .dwattr $C$DW$179, DW_AT_type(*$C$DW$T$221)
    2764                    
    2765                            .dwendtag $C$DW$T$258
    2766                    
    2767                    $C$DW$T$259     .dwtag  DW_TAG_pointer_type
    2768                            .dwattr $C$DW$T$259, DW_AT_type(*$C$DW$T$258)
    2769                            .dwattr $C$DW$T$259, DW_AT_address_class(0x20)
    2770                    
    2771                    $C$DW$T$616     .dwtag  DW_TAG_typedef
    2772                            .dwattr $C$DW$T$616, DW_AT_name("ti_sysbios_interfaces_ITimer_setFunc_FxnT")
    2773                            .dwattr $C$DW$T$616, DW_AT_type(*$C$DW$T$259)
    2774                            .dwattr $C$DW$T$616, DW_AT_language(DW_LANG_C)
    2775                            .dwattr $C$DW$T$616, DW_AT_decl_file("C:/ti/simplelink_cc13x0_sdk_2_30_00_20/kernel/tirtos/pac
    2776                            .dwattr $C$DW$T$616, DW_AT_decl_line(0x1bc)
    2777                            .dwattr $C$DW$T$616, DW_AT_decl_column(0x14)
    2778                    
    2779                    $C$DW$T$266     .dwtag  DW_TAG_const_type
    2780                            .dwattr $C$DW$T$266, DW_AT_type(*$C$DW$T$2)
    2781                    
    2782                    $C$DW$T$267     .dwtag  DW_TAG_pointer_type
    2783                            .dwattr $C$DW$T$267, DW_AT_type(*$C$DW$T$266)
    2784                            .dwattr $C$DW$T$267, DW_AT_address_class(0x20)
    2785                    
    2786                    $C$DW$T$469     .dwtag  DW_TAG_typedef
    2787                            .dwattr $C$DW$T$469, DW_AT_name("xdc_CPtr")
    2788                            .dwattr $C$DW$T$469, DW_AT_type(*$C$DW$T$267)
    2789                            .dwattr $C$DW$T$469, DW_AT_language(DW_LANG_C)
    2790                            .dwattr $C$DW$T$469, DW_AT_decl_file("C:/ti/xdctools_3_50_08_24_core/packages/xdc/std.h")
    2791                            .dwattr $C$DW$T$469, DW_AT_decl_line(0x2f)
    2792                            .dwattr $C$DW$T$469, DW_AT_decl_column(0x1a)
    2793                    
    2794                    $C$DW$T$617     .dwtag  DW_TAG_typedef
    2795                            .dwattr $C$DW$T$617, DW_AT_name("CPtr")
    2796                            .dwattr $C$DW$T$617, DW_AT_type(*$C$DW$T$469)
    2797                            .dwattr $C$DW$T$617, DW_AT_language(DW_LANG_C)
    2798                            .dwattr $C$DW$T$617, DW_AT_decl_file("C:/ti/xdctools_3_50_08_24_core/packages/xdc/std.h")
    2799                            .dwattr $C$DW$T$617, DW_AT_decl_line(0xf8)
    2800                            .dwattr $C$DW$T$617, DW_AT_decl_column(0x19)
    2801                    
    2802                    
    2803                    $C$DW$T$294     .dwtag  DW_TAG_subroutine_type
    2804                            .dwattr $C$DW$T$294, DW_AT_language(DW_LANG_C)
TI ARM Assembler PC v18.1.3 Wed Dec 12 17:41:55 2018

Tools Copyright (c) 1996-2017 Texas Instruments Incorporated
C:\Users\THE_WO~1\AppData\Local\Temp\{050965DE-8841-4571-8C2C-9ACC23B5DBE4} PAGE   52

    2805                    $C$DW$180       .dwtag  DW_TAG_formal_parameter
    2806                            .dwattr $C$DW$180, DW_AT_type(*$C$DW$T$291)
    2807                    
    2808                    $C$DW$181       .dwtag  DW_TAG_formal_parameter
    2809                            .dwattr $C$DW$181, DW_AT_type(*$C$DW$T$241)
    2810                    
    2811                            .dwendtag $C$DW$T$294
    2812                    
    2813                    $C$DW$T$295     .dwtag  DW_TAG_pointer_type
    2814                            .dwattr $C$DW$T$295, DW_AT_type(*$C$DW$T$294)
    2815                            .dwattr $C$DW$T$295, DW_AT_address_class(0x20)
    2816                    
    2817                    
    2818                    $C$DW$T$296     .dwtag  DW_TAG_subroutine_type
    2819                            .dwattr $C$DW$T$296, DW_AT_language(DW_LANG_C)
    2820                    $C$DW$182       .dwtag  DW_TAG_formal_parameter
    2821                            .dwattr $C$DW$182, DW_AT_type(*$C$DW$T$291)
    2822                    
    2823                            .dwendtag $C$DW$T$296
    2824                    
    2825                    $C$DW$T$297     .dwtag  DW_TAG_pointer_type
    2826                            .dwattr $C$DW$T$297, DW_AT_type(*$C$DW$T$296)
    2827                            .dwattr $C$DW$T$297, DW_AT_address_class(0x20)
    2828                    
    2829                    
    2830                    $C$DW$T$300     .dwtag  DW_TAG_subroutine_type
    2831                            .dwattr $C$DW$T$300, DW_AT_language(DW_LANG_C)
    2832                    $C$DW$183       .dwtag  DW_TAG_formal_parameter
    2833                            .dwattr $C$DW$183, DW_AT_type(*$C$DW$T$291)
    2834                    
    2835                    $C$DW$184       .dwtag  DW_TAG_formal_parameter
    2836                            .dwattr $C$DW$184, DW_AT_type(*$C$DW$T$252)
    2837                    
    2838                            .dwendtag $C$DW$T$300
    2839                    
    2840                    $C$DW$T$301     .dwtag  DW_TAG_pointer_type
    2841                            .dwattr $C$DW$T$301, DW_AT_type(*$C$DW$T$300)
    2842                            .dwattr $C$DW$T$301, DW_AT_address_class(0x20)
    2843                    
    2844                    
    2845                    $C$DW$T$304     .dwtag  DW_TAG_subroutine_type
    2846                            .dwattr $C$DW$T$304, DW_AT_language(DW_LANG_C)
    2847                    $C$DW$185       .dwtag  DW_TAG_formal_parameter
    2848                            .dwattr $C$DW$185, DW_AT_type(*$C$DW$T$291)
    2849                    
    2850                    $C$DW$186       .dwtag  DW_TAG_formal_parameter
    2851                            .dwattr $C$DW$186, DW_AT_type(*$C$DW$T$224)
    2852                    
    2853                    $C$DW$187       .dwtag  DW_TAG_formal_parameter
    2854                            .dwattr $C$DW$187, DW_AT_type(*$C$DW$T$221)
    2855                    
    2856                            .dwendtag $C$DW$T$304
    2857                    
    2858                    $C$DW$T$305     .dwtag  DW_TAG_pointer_type
    2859                            .dwattr $C$DW$T$305, DW_AT_type(*$C$DW$T$304)
TI ARM Assembler PC v18.1.3 Wed Dec 12 17:41:55 2018

Tools Copyright (c) 1996-2017 Texas Instruments Incorporated
C:\Users\THE_WO~1\AppData\Local\Temp\{050965DE-8841-4571-8C2C-9ACC23B5DBE4} PAGE   53

    2860                            .dwattr $C$DW$T$305, DW_AT_address_class(0x20)
    2861                    
    2862                    
    2863                    $C$DW$T$321     .dwtag  DW_TAG_subroutine_type
    2864                            .dwattr $C$DW$T$321, DW_AT_language(DW_LANG_C)
    2865                    $C$DW$188       .dwtag  DW_TAG_formal_parameter
    2866                            .dwattr $C$DW$188, DW_AT_type(*$C$DW$T$221)
    2867                    
    2868                    $C$DW$189       .dwtag  DW_TAG_formal_parameter
    2869                            .dwattr $C$DW$189, DW_AT_type(*$C$DW$T$221)
    2870                    
    2871                            .dwendtag $C$DW$T$321
    2872                    
    2873                    $C$DW$T$322     .dwtag  DW_TAG_pointer_type
    2874                            .dwattr $C$DW$T$322, DW_AT_type(*$C$DW$T$321)
    2875                            .dwattr $C$DW$T$322, DW_AT_address_class(0x20)
    2876                    
    2877                    $C$DW$T$323     .dwtag  DW_TAG_typedef
    2878                            .dwattr $C$DW$T$323, DW_AT_name("ti_sysbios_knl_Swi_FuncPtr")
    2879                            .dwattr $C$DW$T$323, DW_AT_type(*$C$DW$T$322)
    2880                            .dwattr $C$DW$T$323, DW_AT_language(DW_LANG_C)
    2881                            .dwattr $C$DW$T$323, DW_AT_decl_file("C:/ti/simplelink_cc13x0_sdk_2_30_00_20/kernel/tirtos/pac
    2882                            .dwattr $C$DW$T$323, DW_AT_decl_line(0x49)
    2883                            .dwattr $C$DW$T$323, DW_AT_decl_column(0x14)
    2884                    
    2885                    
    2886                    $C$DW$T$325     .dwtag  DW_TAG_subroutine_type
    2887                            .dwattr $C$DW$T$325, DW_AT_language(DW_LANG_C)
    2888                    $C$DW$190       .dwtag  DW_TAG_formal_parameter
    2889                            .dwattr $C$DW$190, DW_AT_type(*$C$DW$T$220)
    2890                    
    2891                            .dwendtag $C$DW$T$325
    2892                    
    2893                    $C$DW$T$326     .dwtag  DW_TAG_pointer_type
    2894                            .dwattr $C$DW$T$326, DW_AT_type(*$C$DW$T$325)
    2895                            .dwattr $C$DW$T$326, DW_AT_address_class(0x20)
    2896                    
    2897                    
    2898                    $C$DW$T$332     .dwtag  DW_TAG_subroutine_type
    2899                            .dwattr $C$DW$T$332, DW_AT_language(DW_LANG_C)
    2900                    $C$DW$191       .dwtag  DW_TAG_formal_parameter
    2901                            .dwattr $C$DW$191, DW_AT_type(*$C$DW$T$329)
    2902                    
    2903                    $C$DW$192       .dwtag  DW_TAG_formal_parameter
    2904                            .dwattr $C$DW$192, DW_AT_type(*$C$DW$T$331)
    2905                    
    2906                            .dwendtag $C$DW$T$332
    2907                    
    2908                    $C$DW$T$333     .dwtag  DW_TAG_pointer_type
    2909                            .dwattr $C$DW$T$333, DW_AT_type(*$C$DW$T$332)
    2910                            .dwattr $C$DW$T$333, DW_AT_address_class(0x20)
    2911                    
    2912                    
    2913                    $C$DW$T$334     .dwtag  DW_TAG_subroutine_type
    2914                            .dwattr $C$DW$T$334, DW_AT_language(DW_LANG_C)
TI ARM Assembler PC v18.1.3 Wed Dec 12 17:41:55 2018

Tools Copyright (c) 1996-2017 Texas Instruments Incorporated
C:\Users\THE_WO~1\AppData\Local\Temp\{050965DE-8841-4571-8C2C-9ACC23B5DBE4} PAGE   54

    2915                    $C$DW$193       .dwtag  DW_TAG_formal_parameter
    2916                            .dwattr $C$DW$193, DW_AT_type(*$C$DW$T$329)
    2917                    
    2918                            .dwendtag $C$DW$T$334
    2919                    
    2920                    $C$DW$T$335     .dwtag  DW_TAG_pointer_type
    2921                            .dwattr $C$DW$T$335, DW_AT_type(*$C$DW$T$334)
    2922                            .dwattr $C$DW$T$335, DW_AT_address_class(0x20)
    2923                    
    2924                    
    2925                    $C$DW$T$378     .dwtag  DW_TAG_subroutine_type
    2926                            .dwattr $C$DW$T$378, DW_AT_language(DW_LANG_C)
    2927                    $C$DW$194       .dwtag  DW_TAG_formal_parameter
    2928                            .dwattr $C$DW$194, DW_AT_type(*$C$DW$T$3)
    2929                    
    2930                    $C$DW$195       .dwtag  DW_TAG_formal_parameter
    2931                            .dwattr $C$DW$195, DW_AT_type(*$C$DW$T$195)
    2932                    
    2933                            .dwendtag $C$DW$T$378
    2934                    
    2935                    $C$DW$T$379     .dwtag  DW_TAG_pointer_type
    2936                            .dwattr $C$DW$T$379, DW_AT_type(*$C$DW$T$378)
    2937                            .dwattr $C$DW$T$379, DW_AT_address_class(0x20)
    2938                    
    2939                    $C$DW$T$618     .dwtag  DW_TAG_typedef
    2940                            .dwattr $C$DW$T$618, DW_AT_name("xdc_runtime_IGateProvider_leave_FxnT")
    2941                            .dwattr $C$DW$T$618, DW_AT_type(*$C$DW$T$379)
    2942                            .dwattr $C$DW$T$618, DW_AT_language(DW_LANG_C)
    2943                            .dwattr $C$DW$T$618, DW_AT_decl_file("C:/ti/xdctools_3_50_08_24_core/packages/xdc/runtime/IGat
    2944                            .dwattr $C$DW$T$618, DW_AT_decl_line(0xbc)
    2945                            .dwattr $C$DW$T$618, DW_AT_decl_column(0x14)
    2946                    
    2947                    
    2948                    $C$DW$T$388     .dwtag  DW_TAG_subroutine_type
    2949                            .dwattr $C$DW$T$388, DW_AT_language(DW_LANG_C)
    2950                    $C$DW$196       .dwtag  DW_TAG_formal_parameter
    2951                            .dwattr $C$DW$196, DW_AT_type(*$C$DW$T$3)
    2952                    
    2953                    $C$DW$197       .dwtag  DW_TAG_formal_parameter
    2954                            .dwattr $C$DW$197, DW_AT_type(*$C$DW$T$341)
    2955                    
    2956                    $C$DW$198       .dwtag  DW_TAG_formal_parameter
    2957                            .dwattr $C$DW$198, DW_AT_type(*$C$DW$T$385)
    2958                    
    2959                            .dwendtag $C$DW$T$388
    2960                    
    2961                    $C$DW$T$389     .dwtag  DW_TAG_pointer_type
    2962                            .dwattr $C$DW$T$389, DW_AT_type(*$C$DW$T$388)
    2963                            .dwattr $C$DW$T$389, DW_AT_address_class(0x20)
    2964                    
    2965                    $C$DW$T$619     .dwtag  DW_TAG_typedef
    2966                            .dwattr $C$DW$T$619, DW_AT_name("xdc_runtime_IHeap_free_FxnT")
    2967                            .dwattr $C$DW$T$619, DW_AT_type(*$C$DW$T$389)
    2968                            .dwattr $C$DW$T$619, DW_AT_language(DW_LANG_C)
    2969                            .dwattr $C$DW$T$619, DW_AT_decl_file("C:/ti/xdctools_3_50_08_24_core/packages/xdc/runtime/IHea
TI ARM Assembler PC v18.1.3 Wed Dec 12 17:41:55 2018

Tools Copyright (c) 1996-2017 Texas Instruments Incorporated
C:\Users\THE_WO~1\AppData\Local\Temp\{050965DE-8841-4571-8C2C-9ACC23B5DBE4} PAGE   55

    2970                            .dwattr $C$DW$T$619, DW_AT_decl_line(0xb8)
    2971                            .dwattr $C$DW$T$619, DW_AT_decl_column(0x14)
    2972                    
    2973                    
    2974                    $C$DW$T$394     .dwtag  DW_TAG_subroutine_type
    2975                            .dwattr $C$DW$T$394, DW_AT_language(DW_LANG_C)
    2976                    $C$DW$199       .dwtag  DW_TAG_formal_parameter
    2977                            .dwattr $C$DW$199, DW_AT_type(*$C$DW$T$3)
    2978                    
    2979                    $C$DW$200       .dwtag  DW_TAG_formal_parameter
    2980                            .dwattr $C$DW$200, DW_AT_type(*$C$DW$T$393)
    2981                    
    2982                            .dwendtag $C$DW$T$394
    2983                    
    2984                    $C$DW$T$395     .dwtag  DW_TAG_pointer_type
    2985                            .dwattr $C$DW$T$395, DW_AT_type(*$C$DW$T$394)
    2986                            .dwattr $C$DW$T$395, DW_AT_address_class(0x20)
    2987                    
    2988                    $C$DW$T$620     .dwtag  DW_TAG_typedef
    2989                            .dwattr $C$DW$T$620, DW_AT_name("xdc_runtime_IHeap_getStats_FxnT")
    2990                            .dwattr $C$DW$T$620, DW_AT_type(*$C$DW$T$395)
    2991                            .dwattr $C$DW$T$620, DW_AT_language(DW_LANG_C)
    2992                            .dwattr $C$DW$T$620, DW_AT_decl_file("C:/ti/xdctools_3_50_08_24_core/packages/xdc/runtime/IHea
    2993                            .dwattr $C$DW$T$620, DW_AT_decl_line(0xc8)
    2994                            .dwattr $C$DW$T$620, DW_AT_decl_column(0x14)
    2995                    
    2996                    
    2997                    $C$DW$T$420     .dwtag  DW_TAG_subroutine_type
    2998                            .dwattr $C$DW$T$420, DW_AT_language(DW_LANG_C)
    2999                    $C$DW$201       .dwtag  DW_TAG_formal_parameter
    3000                            .dwattr $C$DW$201, DW_AT_type(*$C$DW$T$417)
    3001                    
    3002                    $C$DW$202       .dwtag  DW_TAG_formal_parameter
    3003                            .dwattr $C$DW$202, DW_AT_type(*$C$DW$T$195)
    3004                    
    3005                            .dwendtag $C$DW$T$420
    3006                    
    3007                    $C$DW$T$421     .dwtag  DW_TAG_pointer_type
    3008                            .dwattr $C$DW$T$421, DW_AT_type(*$C$DW$T$420)
    3009                            .dwattr $C$DW$T$421, DW_AT_address_class(0x20)
    3010                    
    3011                    
    3012                    $C$DW$T$432     .dwtag  DW_TAG_subroutine_type
    3013                            .dwattr $C$DW$T$432, DW_AT_language(DW_LANG_C)
    3014                    $C$DW$203       .dwtag  DW_TAG_formal_parameter
    3015                            .dwattr $C$DW$203, DW_AT_type(*$C$DW$T$429)
    3016                    
    3017                    $C$DW$204       .dwtag  DW_TAG_formal_parameter
    3018                            .dwattr $C$DW$204, DW_AT_type(*$C$DW$T$341)
    3019                    
    3020                    $C$DW$205       .dwtag  DW_TAG_formal_parameter
    3021                            .dwattr $C$DW$205, DW_AT_type(*$C$DW$T$385)
    3022                    
    3023                            .dwendtag $C$DW$T$432
    3024                    
TI ARM Assembler PC v18.1.3 Wed Dec 12 17:41:55 2018

Tools Copyright (c) 1996-2017 Texas Instruments Incorporated
C:\Users\THE_WO~1\AppData\Local\Temp\{050965DE-8841-4571-8C2C-9ACC23B5DBE4} PAGE   56

    3025                    $C$DW$T$433     .dwtag  DW_TAG_pointer_type
    3026                            .dwattr $C$DW$T$433, DW_AT_type(*$C$DW$T$432)
    3027                            .dwattr $C$DW$T$433, DW_AT_address_class(0x20)
    3028                    
    3029                    
    3030                    $C$DW$T$436     .dwtag  DW_TAG_subroutine_type
    3031                            .dwattr $C$DW$T$436, DW_AT_language(DW_LANG_C)
    3032                    $C$DW$206       .dwtag  DW_TAG_formal_parameter
    3033                            .dwattr $C$DW$206, DW_AT_type(*$C$DW$T$429)
    3034                    
    3035                    $C$DW$207       .dwtag  DW_TAG_formal_parameter
    3036                            .dwattr $C$DW$207, DW_AT_type(*$C$DW$T$393)
    3037                    
    3038                            .dwendtag $C$DW$T$436
    3039                    
    3040                    $C$DW$T$437     .dwtag  DW_TAG_pointer_type
    3041                            .dwattr $C$DW$T$437, DW_AT_type(*$C$DW$T$436)
    3042                            .dwattr $C$DW$T$437, DW_AT_address_class(0x20)
    3043                    
    3044                    
    3045                    $C$DW$T$475     .dwtag  DW_TAG_subroutine_type
    3046                            .dwattr $C$DW$T$475, DW_AT_language(DW_LANG_C)
    3047                    $C$DW$208       .dwtag  DW_TAG_formal_parameter
    3048                            .dwattr $C$DW$208, DW_AT_type(*$C$DW$T$341)
    3049                    
    3050                            .dwendtag $C$DW$T$475
    3051                    
    3052                    $C$DW$T$476     .dwtag  DW_TAG_pointer_type
    3053                            .dwattr $C$DW$T$476, DW_AT_type(*$C$DW$T$475)
    3054                            .dwattr $C$DW$T$476, DW_AT_address_class(0x20)
    3055                    
    3056                    
    3057                    $C$DW$T$621     .dwtag  DW_TAG_subroutine_type
    3058                            .dwattr $C$DW$T$621, DW_AT_language(DW_LANG_C)
    3059                    $C$DW$209       .dwtag  DW_TAG_formal_parameter
    3060                            .dwattr $C$DW$209, DW_AT_type(*$C$DW$T$201)
    3061                    
    3062                            .dwendtag $C$DW$T$621
    3063                    
    3064                    $C$DW$T$622     .dwtag  DW_TAG_pointer_type
    3065                            .dwattr $C$DW$T$622, DW_AT_type(*$C$DW$T$621)
    3066                            .dwattr $C$DW$T$622, DW_AT_address_class(0x20)
    3067                    
    3068                    $C$DW$T$623     .dwtag  DW_TAG_typedef
    3069                            .dwattr $C$DW$T$623, DW_AT_name("HwiP_Fxn")
    3070                            .dwattr $C$DW$T$623, DW_AT_type(*$C$DW$T$622)
    3071                            .dwattr $C$DW$T$623, DW_AT_language(DW_LANG_C)
    3072                            .dwattr $C$DW$T$623, DW_AT_decl_file("C:/ti/simplelink_cc13x0_sdk_2_30_00_20/source/ti/drivers
    3073                            .dwattr $C$DW$T$623, DW_AT_decl_line(0x63)
    3074                            .dwattr $C$DW$T$623, DW_AT_decl_column(0x10)
    3075                    
    3076                    
    3077                    $C$DW$T$626     .dwtag  DW_TAG_subroutine_type
    3078                            .dwattr $C$DW$T$626, DW_AT_language(DW_LANG_C)
    3079                    $C$DW$210       .dwtag  DW_TAG_formal_parameter
TI ARM Assembler PC v18.1.3 Wed Dec 12 17:41:55 2018

Tools Copyright (c) 1996-2017 Texas Instruments Incorporated
C:\Users\THE_WO~1\AppData\Local\Temp\{050965DE-8841-4571-8C2C-9ACC23B5DBE4} PAGE   57

    3080                            .dwattr $C$DW$210, DW_AT_type(*$C$DW$T$341)
    3081                    
    3082                    $C$DW$211       .dwtag  DW_TAG_formal_parameter
    3083                            .dwattr $C$DW$211, DW_AT_type(*$C$DW$T$625)
    3084                    
    3085                    $C$DW$212       .dwtag  DW_TAG_formal_parameter
    3086                            .dwattr $C$DW$212, DW_AT_type(*$C$DW$T$352)
    3087                    
    3088                            .dwendtag $C$DW$T$626
    3089                    
    3090                    $C$DW$T$627     .dwtag  DW_TAG_pointer_type
    3091                            .dwattr $C$DW$T$627, DW_AT_type(*$C$DW$T$626)
    3092                            .dwattr $C$DW$T$627, DW_AT_address_class(0x20)
    3093                    
    3094                    $C$DW$T$628     .dwtag  DW_TAG_typedef
    3095                            .dwattr $C$DW$T$628, DW_AT_name("xdc_runtime_Types_LoggerFxn0")
    3096                            .dwattr $C$DW$T$628, DW_AT_type(*$C$DW$T$627)
    3097                            .dwattr $C$DW$T$628, DW_AT_language(DW_LANG_C)
    3098                            .dwattr $C$DW$T$628, DW_AT_decl_file("C:/ti/xdctools_3_50_08_24_core/packages/xdc/runtime/Type
    3099                            .dwattr $C$DW$T$628, DW_AT_decl_line(0x94)
    3100                            .dwattr $C$DW$T$628, DW_AT_decl_column(0x14)
    3101                    
    3102                    $C$DW$T$629     .dwtag  DW_TAG_typedef
