TI ARM Assembler PC v18.1.3 Wed Dec 12 17:41:42 2018

Tools Copyright (c) 1996-2017 Texas Instruments Incorporated
C:\Users\THE_WO~1\AppData\Local\Temp\{EDB6CCF9-DACC-43B8-95CB-11108A63F946} PAGE    1

       1                    ;******************************************************************************
       2                    ;* TI ARM C/C++ Codegen                                        PC v18.1.3.LTS *
       3                    ;* Date/Time created: Wed Dec 12 17:41:41 2018                                *
       4                    ;******************************************************************************
       5                            .compiler_opts --abi=eabi --arm_vmrs_si_workaround=off --code_state=16 --diag_wrap=off --embed
       6 00000000                   .thumb
       7                    
       8                    $C$DW$CU        .dwtag  DW_TAG_compile_unit
       9                            .dwattr $C$DW$CU, DW_AT_name("../Application/CoP/NPI/npi_task.c")
      10                            .dwattr $C$DW$CU, DW_AT_producer("TI TI ARM C/C++ Codegen PC v18.1.3.LTS Copyright (c) 1996-20
      11                            .dwattr $C$DW$CU, DW_AT_TI_version(0x01)
      12                            .dwattr $C$DW$CU, DW_AT_comp_dir("C:\Users\The_Wonderer\Google Drive\School\2018_3_Semester_Fa
      13                    
      14                    $C$DW$1 .dwtag  DW_TAG_subprogram
      15                            .dwattr $C$DW$1, DW_AT_name("ti_sysbios_knl_Task_Params_init")
      16                            .dwattr $C$DW$1, DW_AT_TI_symbol_name("ti_sysbios_knl_Task_Params_init")
      17                            .dwattr $C$DW$1, DW_AT_declaration
      18                            .dwattr $C$DW$1, DW_AT_external
      19                            .dwattr $C$DW$1, DW_AT_decl_file("C:/ti/simplelink_cc13x0_sdk_2_30_00_20/kernel/tirtos/package
      20                            .dwattr $C$DW$1, DW_AT_decl_line(0x47b)
      21                            .dwattr $C$DW$1, DW_AT_decl_column(0x14)
      22                    $C$DW$2 .dwtag  DW_TAG_formal_parameter
      23                            .dwattr $C$DW$2, DW_AT_type(*$C$DW$T$857)
      24                    
      25                            .dwendtag $C$DW$1
      26                    
      27                    
      28                    $C$DW$3 .dwtag  DW_TAG_subprogram
      29                            .dwattr $C$DW$3, DW_AT_name("ICall_sendServiceMsg")
      30                            .dwattr $C$DW$3, DW_AT_TI_symbol_name("ICall_sendServiceMsg")
      31                            .dwattr $C$DW$3, DW_AT_type(*$C$DW$T$240)
      32                            .dwattr $C$DW$3, DW_AT_declaration
      33                            .dwattr $C$DW$3, DW_AT_external
      34                            .dwattr $C$DW$3, DW_AT_decl_file("C:/ti/simplelink_cc13x0_sdk_2_30_00_20/source/ti/ti154stack/
      35                            .dwattr $C$DW$3, DW_AT_decl_line(0x73d)
      36                            .dwattr $C$DW$3, DW_AT_decl_column(0x01)
      37                    $C$DW$4 .dwtag  DW_TAG_formal_parameter
      38                            .dwattr $C$DW$4, DW_AT_type(*$C$DW$T$198)
      39                    
      40                    $C$DW$5 .dwtag  DW_TAG_formal_parameter
      41                            .dwattr $C$DW$5, DW_AT_type(*$C$DW$T$201)
      42                    
      43                    $C$DW$6 .dwtag  DW_TAG_formal_parameter
      44                            .dwattr $C$DW$6, DW_AT_type(*$C$DW$T$291)
      45                    
      46                    $C$DW$7 .dwtag  DW_TAG_formal_parameter
      47                            .dwattr $C$DW$7, DW_AT_type(*$C$DW$T$3)
      48                    
      49                            .dwendtag $C$DW$3
      50                    
      51                    
      52                    $C$DW$8 .dwtag  DW_TAG_subprogram
      53                            .dwattr $C$DW$8, DW_AT_name("ICall_fetchServiceMsg")
      54                            .dwattr $C$DW$8, DW_AT_TI_symbol_name("ICall_fetchServiceMsg")
      55                            .dwattr $C$DW$8, DW_AT_type(*$C$DW$T$240)
TI ARM Assembler PC v18.1.3 Wed Dec 12 17:41:42 2018

Tools Copyright (c) 1996-2017 Texas Instruments Incorporated
C:\Users\THE_WO~1\AppData\Local\Temp\{EDB6CCF9-DACC-43B8-95CB-11108A63F946} PAGE    2

      56                            .dwattr $C$DW$8, DW_AT_declaration
      57                            .dwattr $C$DW$8, DW_AT_external
      58                            .dwattr $C$DW$8, DW_AT_decl_file("C:/ti/simplelink_cc13x0_sdk_2_30_00_20/source/ti/ti154stack/
      59                            .dwattr $C$DW$8, DW_AT_decl_line(0x768)
      60                            .dwattr $C$DW$8, DW_AT_decl_column(0x01)
      61                    $C$DW$9 .dwtag  DW_TAG_formal_parameter
      62                            .dwattr $C$DW$9, DW_AT_type(*$C$DW$T$1095)
      63                    
      64                    $C$DW$10        .dwtag  DW_TAG_formal_parameter
      65                            .dwattr $C$DW$10, DW_AT_type(*$C$DW$T$1057)
      66                    
      67                    $C$DW$11        .dwtag  DW_TAG_formal_parameter
      68                            .dwattr $C$DW$11, DW_AT_type(*$C$DW$T$719)
      69                    
      70                            .dwendtag $C$DW$8
      71                    
      72                    
      73                    $C$DW$12        .dwtag  DW_TAG_subprogram
      74                            .dwattr $C$DW$12, DW_AT_name("NPITask_inititializeTask")
      75                            .dwattr $C$DW$12, DW_AT_TI_symbol_name("NPITask_inititializeTask")
      76                            .dwattr $C$DW$12, DW_AT_declaration
      77                            .dwattr $C$DW$12, DW_AT_external
      78                            .dwattr $C$DW$12, DW_AT_decl_file("../Application/CoP/NPI/npi_task.c")
      79                            .dwattr $C$DW$12, DW_AT_decl_line(0x15b)
      80                            .dwattr $C$DW$12, DW_AT_decl_column(0x0d)
      81                            .dwendtag $C$DW$12
      82                    
      83                    
      84                    $C$DW$13        .dwtag  DW_TAG_subprogram
      85                            .dwattr $C$DW$13, DW_AT_name("NPITask_processICallMsgEvent")
      86                            .dwattr $C$DW$13, DW_AT_TI_symbol_name("NPITask_processICallMsgEvent")
      87                            .dwattr $C$DW$13, DW_AT_type(*$C$DW$T$200)
      88                            .dwattr $C$DW$13, DW_AT_declaration
      89                            .dwattr $C$DW$13, DW_AT_external
      90                            .dwattr $C$DW$13, DW_AT_decl_file("../Application/CoP/NPI/npi_task.c")
      91                            .dwattr $C$DW$13, DW_AT_decl_line(0x35e)
      92                            .dwattr $C$DW$13, DW_AT_decl_column(0x17)
      93                    $C$DW$14        .dwtag  DW_TAG_formal_parameter
      94                            .dwattr $C$DW$14, DW_AT_type(*$C$DW$T$155)
      95                    
      96                    $C$DW$15        .dwtag  DW_TAG_formal_parameter
      97                            .dwattr $C$DW$15, DW_AT_type(*$C$DW$T$201)
      98                    
      99                    $C$DW$16        .dwtag  DW_TAG_formal_parameter
     100                            .dwattr $C$DW$16, DW_AT_type(*$C$DW$T$198)
     101                    
     102                            .dwendtag $C$DW$13
     103                    
     104                    
     105                    $C$DW$17        .dwtag  DW_TAG_subprogram
     106                            .dwattr $C$DW$17, DW_AT_name("NPITask_processStackMsg")
     107                            .dwattr $C$DW$17, DW_AT_TI_symbol_name("NPITask_processStackMsg")
     108                            .dwattr $C$DW$17, DW_AT_declaration
     109                            .dwattr $C$DW$17, DW_AT_external
     110                            .dwattr $C$DW$17, DW_AT_decl_file("../Application/CoP/NPI/npi_task.c")
TI ARM Assembler PC v18.1.3 Wed Dec 12 17:41:42 2018

Tools Copyright (c) 1996-2017 Texas Instruments Incorporated
C:\Users\THE_WO~1\AppData\Local\Temp\{EDB6CCF9-DACC-43B8-95CB-11108A63F946} PAGE    3

     111                            .dwattr $C$DW$17, DW_AT_decl_line(0x392)
     112                            .dwattr $C$DW$17, DW_AT_decl_column(0x0d)
     113                    $C$DW$18        .dwtag  DW_TAG_formal_parameter
     114                            .dwattr $C$DW$18, DW_AT_type(*$C$DW$T$155)
     115                    
     116                            .dwendtag $C$DW$17
     117                    
     118                    
     119                    $C$DW$19        .dwtag  DW_TAG_subprogram
     120                            .dwattr $C$DW$19, DW_AT_name("NPITask_ProcessTXQ")
     121                            .dwattr $C$DW$19, DW_AT_TI_symbol_name("NPITask_ProcessTXQ")
     122                            .dwattr $C$DW$19, DW_AT_declaration
     123                            .dwattr $C$DW$19, DW_AT_external
     124                            .dwattr $C$DW$19, DW_AT_decl_file("../Application/CoP/NPI/npi_task.c")
     125                            .dwattr $C$DW$19, DW_AT_decl_line(0x3ef)
     126                            .dwattr $C$DW$19, DW_AT_decl_column(0x0d)
     127                            .dwendtag $C$DW$19
     128                    
     129                    
     130                    $C$DW$20        .dwtag  DW_TAG_subprogram
     131                            .dwattr $C$DW$20, DW_AT_name("NPITask_processRXQ")
     132                            .dwattr $C$DW$20, DW_AT_TI_symbol_name("NPITask_processRXQ")
     133                            .dwattr $C$DW$20, DW_AT_declaration
     134                            .dwattr $C$DW$20, DW_AT_external
     135                            .dwattr $C$DW$20, DW_AT_decl_file("../Application/CoP/NPI/npi_task.c")
     136                            .dwattr $C$DW$20, DW_AT_decl_line(0x43b)
     137                            .dwattr $C$DW$20, DW_AT_decl_column(0x0d)
     138                            .dwendtag $C$DW$20
     139                    
     140                    $C$DW$21        .dwtag  DW_TAG_variable
     141                            .dwattr $C$DW$21, DW_AT_name("ICall_dispatcher")
     142                            .dwattr $C$DW$21, DW_AT_TI_symbol_name("ICall_dispatcher")
     143                            .dwattr $C$DW$21, DW_AT_type(*$C$DW$T$282)
     144                            .dwattr $C$DW$21, DW_AT_declaration
     145                            .dwattr $C$DW$21, DW_AT_external
     146                            .dwattr $C$DW$21, DW_AT_decl_file("C:/ti/simplelink_cc13x0_sdk_2_30_00_20/source/ti/ti154stack
     147                            .dwattr $C$DW$21, DW_AT_decl_line(0x381)
     148                            .dwattr $C$DW$21, DW_AT_decl_column(0x19)
     149                    
     150                    $C$DW$22        .dwtag  DW_TAG_variable
     151                            .dwattr $C$DW$22, DW_AT_name("ICall_enterCriticalSection")
     152                            .dwattr $C$DW$22, DW_AT_TI_symbol_name("ICall_enterCriticalSection")
     153                            .dwattr $C$DW$22, DW_AT_type(*$C$DW$T$286)
     154                            .dwattr $C$DW$22, DW_AT_declaration
     155                            .dwattr $C$DW$22, DW_AT_external
     156                            .dwattr $C$DW$22, DW_AT_decl_file("C:/ti/simplelink_cc13x0_sdk_2_30_00_20/source/ti/ti154stack
     157                            .dwattr $C$DW$22, DW_AT_decl_line(0x384)
     158                            .dwattr $C$DW$22, DW_AT_decl_column(0x16)
     159                    
     160                    $C$DW$23        .dwtag  DW_TAG_variable
     161                            .dwattr $C$DW$23, DW_AT_name("ICall_leaveCriticalSection")
     162                            .dwattr $C$DW$23, DW_AT_TI_symbol_name("ICall_leaveCriticalSection")
     163                            .dwattr $C$DW$23, DW_AT_type(*$C$DW$T$289)
     164                            .dwattr $C$DW$23, DW_AT_declaration
     165                            .dwattr $C$DW$23, DW_AT_external
TI ARM Assembler PC v18.1.3 Wed Dec 12 17:41:42 2018

Tools Copyright (c) 1996-2017 Texas Instruments Incorporated
C:\Users\THE_WO~1\AppData\Local\Temp\{EDB6CCF9-DACC-43B8-95CB-11108A63F946} PAGE    4

     166                            .dwattr $C$DW$23, DW_AT_decl_file("C:/ti/simplelink_cc13x0_sdk_2_30_00_20/source/ti/ti154stack
     167                            .dwattr $C$DW$23, DW_AT_decl_line(0x387)
     168                            .dwattr $C$DW$23, DW_AT_decl_column(0x16)
     169                    
     170                    
     171                    $C$DW$24        .dwtag  DW_TAG_subprogram
     172                            .dwattr $C$DW$24, DW_AT_name("ti_sysbios_knl_Task_Params__init__S")
     173                            .dwattr $C$DW$24, DW_AT_TI_symbol_name("ti_sysbios_knl_Task_Params__init__S")
     174                            .dwattr $C$DW$24, DW_AT_declaration
     175                            .dwattr $C$DW$24, DW_AT_external
     176                            .dwattr $C$DW$24, DW_AT_decl_file("C:/ti/simplelink_cc13x0_sdk_2_30_00_20/kernel/tirtos/packag
     177                            .dwattr $C$DW$24, DW_AT_decl_line(0x36a)
     178                            .dwattr $C$DW$24, DW_AT_decl_column(0x13)
     179                    $C$DW$25        .dwtag  DW_TAG_formal_parameter
     180                            .dwattr $C$DW$25, DW_AT_type(*$C$DW$T$344)
     181                    
     182                    $C$DW$26        .dwtag  DW_TAG_formal_parameter
     183                            .dwattr $C$DW$26, DW_AT_type(*$C$DW$T$304)
     184                    
     185                    $C$DW$27        .dwtag  DW_TAG_formal_parameter
     186                            .dwattr $C$DW$27, DW_AT_type(*$C$DW$T$356)
     187                    
     188                    $C$DW$28        .dwtag  DW_TAG_formal_parameter
     189                            .dwattr $C$DW$28, DW_AT_type(*$C$DW$T$356)
     190                    
     191                            .dwendtag $C$DW$24
     192                    
     193                    
     194                    $C$DW$29        .dwtag  DW_TAG_subprogram
     195                            .dwattr $C$DW$29, DW_AT_name("ti_sysbios_knl_Queue_create")
     196                            .dwattr $C$DW$29, DW_AT_TI_symbol_name("ti_sysbios_knl_Queue_create")
     197                            .dwattr $C$DW$29, DW_AT_type(*$C$DW$T$484)
     198                            .dwattr $C$DW$29, DW_AT_declaration
     199                            .dwattr $C$DW$29, DW_AT_external
     200                            .dwattr $C$DW$29, DW_AT_decl_file("C:/ti/simplelink_cc13x0_sdk_2_30_00_20/kernel/tirtos/packag
     201                            .dwattr $C$DW$29, DW_AT_decl_line(0x10c)
     202                            .dwattr $C$DW$29, DW_AT_decl_column(0x26)
     203                    $C$DW$30        .dwtag  DW_TAG_formal_parameter
     204                            .dwattr $C$DW$30, DW_AT_type(*$C$DW$T$1718)
     205                    
     206                    $C$DW$31        .dwtag  DW_TAG_formal_parameter
     207                            .dwattr $C$DW$31, DW_AT_type(*$C$DW$T$347)
     208                    
     209                            .dwendtag $C$DW$29
     210                    
     211                    
     212                    $C$DW$32        .dwtag  DW_TAG_subprogram
     213                            .dwattr $C$DW$32, DW_AT_name("NPIFrame_initialize")
     214                            .dwattr $C$DW$32, DW_AT_TI_symbol_name("NPIFrame_initialize")
     215                            .dwattr $C$DW$32, DW_AT_declaration
     216                            .dwattr $C$DW$32, DW_AT_external
     217                            .dwattr $C$DW$32, DW_AT_decl_file("C:/ti/simplelink_cc13x0_sdk_2_30_00_20/source/ti/ti154stack
     218                            .dwattr $C$DW$32, DW_AT_decl_line(0x5d)
     219                            .dwattr $C$DW$32, DW_AT_decl_column(0x0d)
     220                    $C$DW$33        .dwtag  DW_TAG_formal_parameter
TI ARM Assembler PC v18.1.3 Wed Dec 12 17:41:42 2018

Tools Copyright (c) 1996-2017 Texas Instruments Incorporated
C:\Users\THE_WO~1\AppData\Local\Temp\{EDB6CCF9-DACC-43B8-95CB-11108A63F946} PAGE    5

     221                            .dwattr $C$DW$33, DW_AT_type(*$C$DW$T$866)
     222                    
     223                            .dwendtag $C$DW$32
     224                    
     225                    
     226                    $C$DW$34        .dwtag  DW_TAG_subprogram
     227                            .dwattr $C$DW$34, DW_AT_name("NPITL_initTL")
     228                            .dwattr $C$DW$34, DW_AT_TI_symbol_name("NPITL_initTL")
     229                            .dwattr $C$DW$34, DW_AT_declaration
     230                            .dwattr $C$DW$34, DW_AT_external
     231                            .dwattr $C$DW$34, DW_AT_decl_file("C:/ti/simplelink_cc13x0_sdk_2_30_00_20/source/ti/ti154stack
     232                            .dwattr $C$DW$34, DW_AT_decl_line(0x77)
     233                            .dwattr $C$DW$34, DW_AT_decl_column(0x06)
     234                    $C$DW$35        .dwtag  DW_TAG_formal_parameter
     235                            .dwattr $C$DW$35, DW_AT_type(*$C$DW$T$871)
     236                    
     237                    $C$DW$36        .dwtag  DW_TAG_formal_parameter
     238                            .dwattr $C$DW$36, DW_AT_type(*$C$DW$T$871)
     239                    
     240                    $C$DW$37        .dwtag  DW_TAG_formal_parameter
     241                            .dwattr $C$DW$37, DW_AT_type(*$C$DW$T$871)
     242                    
     243                            .dwendtag $C$DW$34
     244                    
     245                    
     246                    $C$DW$38        .dwtag  DW_TAG_subprogram
     247                            .dwattr $C$DW$38, DW_AT_name("ti_sysbios_knl_Semaphore_pend__E")
     248                            .dwattr $C$DW$38, DW_AT_TI_symbol_name("ti_sysbios_knl_Semaphore_pend__E")
     249                            .dwattr $C$DW$38, DW_AT_type(*$C$DW$T$318)
     250                            .dwattr $C$DW$38, DW_AT_declaration
     251                            .dwattr $C$DW$38, DW_AT_external
     252                            .dwattr $C$DW$38, DW_AT_decl_file("C:/ti/simplelink_cc13x0_sdk_2_30_00_20/kernel/tirtos/packag
     253                            .dwattr $C$DW$38, DW_AT_decl_line(0x1dc)
     254                            .dwattr $C$DW$38, DW_AT_decl_column(0x13)
     255                    $C$DW$39        .dwtag  DW_TAG_formal_parameter
     256                            .dwattr $C$DW$39, DW_AT_type(*$C$DW$T$861)
     257                    
     258                    $C$DW$40        .dwtag  DW_TAG_formal_parameter
     259                            .dwattr $C$DW$40, DW_AT_type(*$C$DW$T$378)
     260                    
     261                            .dwendtag $C$DW$38
     262                    
     263                    
     264                    $C$DW$41        .dwtag  DW_TAG_subprogram
     265                            .dwattr $C$DW$41, DW_AT_name("ti_sysbios_knl_Queue_empty__E")
     266                            .dwattr $C$DW$41, DW_AT_TI_symbol_name("ti_sysbios_knl_Queue_empty__E")
     267                            .dwattr $C$DW$41, DW_AT_type(*$C$DW$T$318)
     268                            .dwattr $C$DW$41, DW_AT_declaration
     269                            .dwattr $C$DW$41, DW_AT_external
     270                            .dwattr $C$DW$41, DW_AT_decl_file("C:/ti/simplelink_cc13x0_sdk_2_30_00_20/kernel/tirtos/packag
     271                            .dwattr $C$DW$41, DW_AT_decl_line(0x160)
     272                            .dwattr $C$DW$41, DW_AT_decl_column(0x13)
     273                    $C$DW$42        .dwtag  DW_TAG_formal_parameter
     274                            .dwattr $C$DW$42, DW_AT_type(*$C$DW$T$484)
     275                    
TI ARM Assembler PC v18.1.3 Wed Dec 12 17:41:42 2018

Tools Copyright (c) 1996-2017 Texas Instruments Incorporated
C:\Users\THE_WO~1\AppData\Local\Temp\{EDB6CCF9-DACC-43B8-95CB-11108A63F946} PAGE    6

     276                            .dwendtag $C$DW$41
     277                    
     278                    
     279                    $C$DW$43        .dwtag  DW_TAG_subprogram
     280                            .dwattr $C$DW$43, DW_AT_name("NPITL_checkNpiBusy")
     281                            .dwattr $C$DW$43, DW_AT_TI_symbol_name("NPITL_checkNpiBusy")
     282                            .dwattr $C$DW$43, DW_AT_type(*$C$DW$T$254)
     283                            .dwattr $C$DW$43, DW_AT_declaration
     284                            .dwattr $C$DW$43, DW_AT_external
     285                            .dwattr $C$DW$43, DW_AT_decl_file("C:/ti/simplelink_cc13x0_sdk_2_30_00_20/source/ti/ti154stack
     286                            .dwattr $C$DW$43, DW_AT_decl_line(0xb1)
     287                            .dwattr $C$DW$43, DW_AT_decl_column(0x06)
     288                            .dwendtag $C$DW$43
     289                    
     290                    
     291                    $C$DW$44        .dwtag  DW_TAG_subprogram
     292                            .dwattr $C$DW$44, DW_AT_name("ti_sysbios_knl_Semaphore_post__E")
     293                            .dwattr $C$DW$44, DW_AT_TI_symbol_name("ti_sysbios_knl_Semaphore_post__E")
     294                            .dwattr $C$DW$44, DW_AT_declaration
     295                            .dwattr $C$DW$44, DW_AT_external
     296                            .dwattr $C$DW$44, DW_AT_decl_file("C:/ti/simplelink_cc13x0_sdk_2_30_00_20/kernel/tirtos/packag
     297                            .dwattr $C$DW$44, DW_AT_decl_line(0x1e1)
     298                            .dwattr $C$DW$44, DW_AT_decl_column(0x13)
     299                    $C$DW$45        .dwtag  DW_TAG_formal_parameter
     300                            .dwattr $C$DW$45, DW_AT_type(*$C$DW$T$861)
     301                    
     302                            .dwendtag $C$DW$44
     303                    
     304                    
     305                    $C$DW$46        .dwtag  DW_TAG_subprogram
     306                            .dwattr $C$DW$46, DW_AT_name("NPIFrame_collectFrameData")
     307                            .dwattr $C$DW$46, DW_AT_TI_symbol_name("NPIFrame_collectFrameData")
     308                            .dwattr $C$DW$46, DW_AT_declaration
     309                            .dwattr $C$DW$46, DW_AT_external
     310                            .dwattr $C$DW$46, DW_AT_decl_file("C:/ti/simplelink_cc13x0_sdk_2_30_00_20/source/ti/ti154stack
     311                            .dwattr $C$DW$46, DW_AT_decl_line(0x73)
     312                            .dwattr $C$DW$46, DW_AT_decl_column(0x0d)
     313                            .dwendtag $C$DW$46
     314                    
     315                    
     316                    $C$DW$47        .dwtag  DW_TAG_subprogram
     317                            .dwattr $C$DW$47, DW_AT_name("NPIRxBuf_GetRxBufCount")
     318                            .dwattr $C$DW$47, DW_AT_TI_symbol_name("NPIRxBuf_GetRxBufCount")
     319                            .dwattr $C$DW$47, DW_AT_type(*$C$DW$T$1087)
     320                            .dwattr $C$DW$47, DW_AT_declaration
     321                            .dwattr $C$DW$47, DW_AT_external
     322                            .dwattr $C$DW$47, DW_AT_decl_file("C:/ti/simplelink_cc13x0_sdk_2_30_00_20/source/ti/ti154stack
     323                            .dwattr $C$DW$47, DW_AT_decl_line(0x5b)
     324                            .dwattr $C$DW$47, DW_AT_decl_column(0x08)
     325                            .dwendtag $C$DW$47
     326                    
     327                    
     328                    $C$DW$48        .dwtag  DW_TAG_subprogram
     329                            .dwattr $C$DW$48, DW_AT_name("memset")
     330                            .dwattr $C$DW$48, DW_AT_TI_symbol_name("memset")
TI ARM Assembler PC v18.1.3 Wed Dec 12 17:41:42 2018

Tools Copyright (c) 1996-2017 Texas Instruments Incorporated
C:\Users\THE_WO~1\AppData\Local\Temp\{EDB6CCF9-DACC-43B8-95CB-11108A63F946} PAGE    7

     331                            .dwattr $C$DW$48, DW_AT_type(*$C$DW$T$3)
     332                            .dwattr $C$DW$48, DW_AT_declaration
     333                            .dwattr $C$DW$48, DW_AT_external
     334                            .dwattr $C$DW$48, DW_AT_decl_file("C:/ti/ccsv8/tools/compiler/ti-cgt-arm_18.1.3.LTS/include/st
     335                            .dwattr $C$DW$48, DW_AT_decl_line(0x7a)
     336                            .dwattr $C$DW$48, DW_AT_decl_column(0x16)
     337                    $C$DW$49        .dwtag  DW_TAG_formal_parameter
     338                            .dwattr $C$DW$49, DW_AT_type(*$C$DW$T$3)
     339                    
     340                    $C$DW$50        .dwtag  DW_TAG_formal_parameter
     341                            .dwattr $C$DW$50, DW_AT_type(*$C$DW$T$10)
     342                    
     343                    $C$DW$51        .dwtag  DW_TAG_formal_parameter
     344                            .dwattr $C$DW$51, DW_AT_type(*$C$DW$T$233)
     345                    
     346                            .dwendtag $C$DW$48
     347                    
     348                    
     349                    $C$DW$52        .dwtag  DW_TAG_subprogram
     350                            .dwattr $C$DW$52, DW_AT_name("ti_sysbios_knl_Task_construct")
     351                            .dwattr $C$DW$52, DW_AT_TI_symbol_name("ti_sysbios_knl_Task_construct")
     352                            .dwattr $C$DW$52, DW_AT_declaration
     353                            .dwattr $C$DW$52, DW_AT_external
     354                            .dwattr $C$DW$52, DW_AT_decl_file("C:/ti/simplelink_cc13x0_sdk_2_30_00_20/kernel/tirtos/packag
     355                            .dwattr $C$DW$52, DW_AT_decl_line(0x342)
     356                            .dwattr $C$DW$52, DW_AT_decl_column(0x0f)
     357                    $C$DW$53        .dwtag  DW_TAG_formal_parameter
     358                            .dwattr $C$DW$53, DW_AT_type(*$C$DW$T$849)
     359                    
     360                    $C$DW$54        .dwtag  DW_TAG_formal_parameter
     361                            .dwattr $C$DW$54, DW_AT_type(*$C$DW$T$493)
     362                    
     363                    $C$DW$55        .dwtag  DW_TAG_formal_parameter
     364                            .dwattr $C$DW$55, DW_AT_type(*$C$DW$T$852)
     365                    
     366                    $C$DW$56        .dwtag  DW_TAG_formal_parameter
     367                            .dwattr $C$DW$56, DW_AT_type(*$C$DW$T$347)
     368                    
     369                            .dwendtag $C$DW$52
     370                    
     371                    
     372                    $C$DW$57        .dwtag  DW_TAG_subprogram
     373                            .dwattr $C$DW$57, DW_AT_name("NPIFrame_frameMsg")
     374                            .dwattr $C$DW$57, DW_AT_TI_symbol_name("NPIFrame_frameMsg")
     375                            .dwattr $C$DW$57, DW_AT_type(*$C$DW$T$218)
     376                            .dwattr $C$DW$57, DW_AT_declaration
     377                            .dwattr $C$DW$57, DW_AT_external
     378                            .dwattr $C$DW$57, DW_AT_decl_file("C:/ti/simplelink_cc13x0_sdk_2_30_00_20/source/ti/ti154stack
     379                            .dwattr $C$DW$57, DW_AT_decl_line(0x69)
     380                            .dwattr $C$DW$57, DW_AT_decl_column(0x17)
     381                    $C$DW$58        .dwtag  DW_TAG_formal_parameter
     382                            .dwattr $C$DW$58, DW_AT_type(*$C$DW$T$155)
     383                    
     384                            .dwendtag $C$DW$57
     385                    
TI ARM Assembler PC v18.1.3 Wed Dec 12 17:41:42 2018

Tools Copyright (c) 1996-2017 Texas Instruments Incorporated
C:\Users\THE_WO~1\AppData\Local\Temp\{EDB6CCF9-DACC-43B8-95CB-11108A63F946} PAGE    8

     386                    
     387                    $C$DW$59        .dwtag  DW_TAG_subprogram
     388                            .dwattr $C$DW$59, DW_AT_name("ti_sysbios_knl_Queue_enqueue__E")
     389                            .dwattr $C$DW$59, DW_AT_TI_symbol_name("ti_sysbios_knl_Queue_enqueue__E")
     390                            .dwattr $C$DW$59, DW_AT_declaration
     391                            .dwattr $C$DW$59, DW_AT_external
     392                            .dwattr $C$DW$59, DW_AT_decl_file("C:/ti/simplelink_cc13x0_sdk_2_30_00_20/kernel/tirtos/packag
     393                            .dwattr $C$DW$59, DW_AT_decl_line(0x165)
     394                            .dwattr $C$DW$59, DW_AT_decl_column(0x13)
     395                    $C$DW$60        .dwtag  DW_TAG_formal_parameter
     396                            .dwattr $C$DW$60, DW_AT_type(*$C$DW$T$484)
     397                    
     398                    $C$DW$61        .dwtag  DW_TAG_formal_parameter
     399                            .dwattr $C$DW$61, DW_AT_type(*$C$DW$T$449)
     400                    
     401                            .dwendtag $C$DW$59
     402                    
     403                    
     404                    $C$DW$62        .dwtag  DW_TAG_subprogram
     405                            .dwattr $C$DW$62, DW_AT_name("ti_sysbios_knl_Queue_dequeue__E")
     406                            .dwattr $C$DW$62, DW_AT_TI_symbol_name("ti_sysbios_knl_Queue_dequeue__E")
     407                            .dwattr $C$DW$62, DW_AT_type(*$C$DW$T$344)
     408                            .dwattr $C$DW$62, DW_AT_declaration
     409                            .dwattr $C$DW$62, DW_AT_external
     410                            .dwattr $C$DW$62, DW_AT_decl_file("C:/ti/simplelink_cc13x0_sdk_2_30_00_20/kernel/tirtos/packag
     411                            .dwattr $C$DW$62, DW_AT_decl_line(0x15b)
     412                            .dwattr $C$DW$62, DW_AT_decl_column(0x12)
     413                    $C$DW$63        .dwtag  DW_TAG_formal_parameter
     414                            .dwattr $C$DW$63, DW_AT_type(*$C$DW$T$484)
     415                    
     416                            .dwendtag $C$DW$62
     417                    
     418                    
     419                    $C$DW$64        .dwtag  DW_TAG_subprogram
     420                            .dwattr $C$DW$64, DW_AT_name("NPITL_writeTL")
     421                            .dwattr $C$DW$64, DW_AT_TI_symbol_name("NPITL_writeTL")
     422                            .dwattr $C$DW$64, DW_AT_type(*$C$DW$T$1087)
     423                            .dwattr $C$DW$64, DW_AT_declaration
     424                            .dwattr $C$DW$64, DW_AT_external
     425                            .dwattr $C$DW$64, DW_AT_decl_file("C:/ti/simplelink_cc13x0_sdk_2_30_00_20/source/ti/ti154stack
     426                            .dwattr $C$DW$64, DW_AT_decl_line(0x8c)
     427                            .dwattr $C$DW$64, DW_AT_decl_column(0x08)
     428                    $C$DW$65        .dwtag  DW_TAG_formal_parameter
     429                            .dwattr $C$DW$65, DW_AT_type(*$C$DW$T$1066)
     430                    
     431                    $C$DW$66        .dwtag  DW_TAG_formal_parameter
     432                            .dwattr $C$DW$66, DW_AT_type(*$C$DW$T$1087)
     433                    
     434                            .dwendtag $C$DW$64
     435                    
     436                    
     437                    $C$DW$67        .dwtag  DW_TAG_subprogram
     438                            .dwattr $C$DW$67, DW_AT_name("NPIRxBuf_GetRxBufAvail")
     439                            .dwattr $C$DW$67, DW_AT_TI_symbol_name("NPIRxBuf_GetRxBufAvail")
     440                            .dwattr $C$DW$67, DW_AT_type(*$C$DW$T$1087)
TI ARM Assembler PC v18.1.3 Wed Dec 12 17:41:42 2018

Tools Copyright (c) 1996-2017 Texas Instruments Incorporated
C:\Users\THE_WO~1\AppData\Local\Temp\{EDB6CCF9-DACC-43B8-95CB-11108A63F946} PAGE    9

     441                            .dwattr $C$DW$67, DW_AT_declaration
     442                            .dwattr $C$DW$67, DW_AT_external
     443                            .dwattr $C$DW$67, DW_AT_decl_file("C:/ti/simplelink_cc13x0_sdk_2_30_00_20/source/ti/ti154stack
     444                            .dwattr $C$DW$67, DW_AT_decl_line(0x62)
     445                            .dwattr $C$DW$67, DW_AT_decl_column(0x08)
     446                            .dwendtag $C$DW$67
     447                    
     448                    
     449                    $C$DW$68        .dwtag  DW_TAG_subprogram
     450                            .dwattr $C$DW$68, DW_AT_name("NPIRxBuf_Read")
     451                            .dwattr $C$DW$68, DW_AT_TI_symbol_name("NPIRxBuf_Read")
     452                            .dwattr $C$DW$68, DW_AT_type(*$C$DW$T$1087)
     453                            .dwattr $C$DW$68, DW_AT_declaration
     454                            .dwattr $C$DW$68, DW_AT_external
     455                            .dwattr $C$DW$68, DW_AT_decl_file("C:/ti/simplelink_cc13x0_sdk_2_30_00_20/source/ti/ti154stack
     456                            .dwattr $C$DW$68, DW_AT_decl_line(0x54)
     457                            .dwattr $C$DW$68, DW_AT_decl_column(0x08)
     458                    $C$DW$69        .dwtag  DW_TAG_formal_parameter
     459                            .dwattr $C$DW$69, DW_AT_type(*$C$DW$T$1087)
     460                    
     461                            .dwendtag $C$DW$68
     462                    
     463 00000000                   .sect   ".data:$O1$$", RW
     464                            .align  4
     465                            .elfsym ||$O1$$||,SYM_SIZE(872)
     466 00000000           ||$O1$$||:
     467 00000000 00000000          .bits   0,8                     ; $O1$$.npiAppEntityID @ 0
     468 00000000 00000000          .bits   0,8                     ; $O1$$.incomingRXReroute @ 8
     469 00000000 00000000          .bits   0,8                     ; $O1$$.incomingTXReroute @ 16
     470 00000000 00000000          .bits   0,8
     471 00000004 00000000          .bits   0,16                    ; $O1$$.NPITask_events @ 32
     472 00000004 00000000          .bits   0,16                    ; $O1$$.TX_DONE_ISR_EVENT_FLAG @ 48
     473 00000008 00000000          .bits   0,16                    ; $O1$$.MRDY_ISR_EVENT_FLAG @ 64
     474 00000008 00000000          .bits   0,16                    ; $O1$$.TRANSPORT_RX_ISR_EVENT_FLAG @ 80
     475 0000000c 00000000          .bits   0,32                    ; $O1$$.stackServiceID @ 96
     476 00000010                   .space  12
     477 0000001c 00000000          .bits   0,32                    ; $O1$$.appSem @ 224
     478 00000020 00000000          .bits   0,32                    ; $O1$$.incomingRXEventAppCBFunc @ 256
     479 00000024 00000000          .bits   0,32                    ; $O1$$.incomingTXEventAppCBFunc @ 288
     480 00000028                   .space  832
     481                    
     482                    
     483                    ;*********************************************************************
     484                    ;* GROUPED GLOBALS FOR $O1$$                                         *
     485                    ;*********************************************************************
     486          00000000! npiAppEntityID: .set    ||$O1$$||+0
     487                            .global npiAppEntityID
     488                    $C$DW$70        .dwtag  DW_TAG_variable
     489                            .dwattr $C$DW$70, DW_AT_name("npiAppEntityID")
     490                            .dwattr $C$DW$70, DW_AT_TI_symbol_name("npiAppEntityID")
     491                            .dwattr $C$DW$70, DW_AT_location[DW_OP_addr npiAppEntityID]
     492                            .dwattr $C$DW$70, DW_AT_type(*$C$DW$T$198)
     493                            .dwattr $C$DW$70, DW_AT_external
     494                            .dwattr $C$DW$70, DW_AT_decl_file("../Application/CoP/NPI/npi_task.c")
     495                            .dwattr $C$DW$70, DW_AT_decl_line(0xf2)
TI ARM Assembler PC v18.1.3 Wed Dec 12 17:41:42 2018

Tools Copyright (c) 1996-2017 Texas Instruments Incorporated
C:\Users\THE_WO~1\AppData\Local\Temp\{EDB6CCF9-DACC-43B8-95CB-11108A63F946} PAGE   10

     496                            .dwattr $C$DW$70, DW_AT_decl_column(0x10)
     497                    
     498          00000001! incomingRXReroute:      .set    ||$O1$$||+1
     499                    $C$DW$71        .dwtag  DW_TAG_variable
     500                            .dwattr $C$DW$71, DW_AT_name("incomingRXReroute")
     501                            .dwattr $C$DW$71, DW_AT_TI_symbol_name("incomingRXReroute")
     502                            .dwattr $C$DW$71, DW_AT_type(*$C$DW$T$708)
     503                            .dwattr $C$DW$71, DW_AT_location[DW_OP_addr incomingRXReroute]
     504                            .dwattr $C$DW$71, DW_AT_decl_file("../Application/CoP/NPI/npi_task.c")
     505                            .dwattr $C$DW$71, DW_AT_decl_line(0x107)
     506                            .dwattr $C$DW$71, DW_AT_decl_column(0x28)
     507                    
     508          00000002! incomingTXReroute:      .set    ||$O1$$||+2
     509                    $C$DW$72        .dwtag  DW_TAG_variable
     510                            .dwattr $C$DW$72, DW_AT_name("incomingTXReroute")
     511                            .dwattr $C$DW$72, DW_AT_TI_symbol_name("incomingTXReroute")
     512                            .dwattr $C$DW$72, DW_AT_type(*$C$DW$T$708)
     513                            .dwattr $C$DW$72, DW_AT_location[DW_OP_addr incomingTXReroute]
     514                            .dwattr $C$DW$72, DW_AT_decl_file("../Application/CoP/NPI/npi_task.c")
     515                            .dwattr $C$DW$72, DW_AT_decl_line(0x111)
     516                            .dwattr $C$DW$72, DW_AT_decl_column(0x28)
     517                    
     518          00000004! NPITask_events: .set    ||$O1$$||+4
     519                    $C$DW$73        .dwtag  DW_TAG_variable
     520                            .dwattr $C$DW$73, DW_AT_name("NPITask_events")
     521                            .dwattr $C$DW$73, DW_AT_TI_symbol_name("NPITask_events")
     522                            .dwattr $C$DW$73, DW_AT_type(*$C$DW$T$172)
     523                            .dwattr $C$DW$73, DW_AT_location[DW_OP_addr NPITask_events]
     524                            .dwattr $C$DW$73, DW_AT_decl_file("../Application/CoP/NPI/npi_task.c")
     525                            .dwattr $C$DW$73, DW_AT_decl_line(0xf7)
     526                            .dwattr $C$DW$73, DW_AT_decl_column(0x11)
     527                    
     528          00000006! TX_DONE_ISR_EVENT_FLAG: .set    ||$O1$$||+6
     529                    $C$DW$74        .dwtag  DW_TAG_variable
     530                            .dwattr $C$DW$74, DW_AT_name("TX_DONE_ISR_EVENT_FLAG")
     531                            .dwattr $C$DW$74, DW_AT_TI_symbol_name("TX_DONE_ISR_EVENT_FLAG")
     532                            .dwattr $C$DW$74, DW_AT_type(*$C$DW$T$172)
     533                            .dwattr $C$DW$74, DW_AT_location[DW_OP_addr TX_DONE_ISR_EVENT_FLAG]
     534                            .dwattr $C$DW$74, DW_AT_decl_file("../Application/CoP/NPI/npi_task.c")
     535                            .dwattr $C$DW$74, DW_AT_decl_line(0xfb)
     536                            .dwattr $C$DW$74, DW_AT_decl_column(0x11)
     537                    
     538          00000008! MRDY_ISR_EVENT_FLAG:    .set    ||$O1$$||+8
     539                    $C$DW$75        .dwtag  DW_TAG_variable
     540                            .dwattr $C$DW$75, DW_AT_name("MRDY_ISR_EVENT_FLAG")
     541                            .dwattr $C$DW$75, DW_AT_TI_symbol_name("MRDY_ISR_EVENT_FLAG")
     542                            .dwattr $C$DW$75, DW_AT_type(*$C$DW$T$172)
     543                            .dwattr $C$DW$75, DW_AT_location[DW_OP_addr MRDY_ISR_EVENT_FLAG]
     544                            .dwattr $C$DW$75, DW_AT_decl_file("../Application/CoP/NPI/npi_task.c")
     545                            .dwattr $C$DW$75, DW_AT_decl_line(0xfc)
     546                            .dwattr $C$DW$75, DW_AT_decl_column(0x11)
     547                    
     548          0000000A! TRANSPORT_RX_ISR_EVENT_FLAG:    .set    ||$O1$$||+10
     549                    $C$DW$76        .dwtag  DW_TAG_variable
     550                            .dwattr $C$DW$76, DW_AT_name("TRANSPORT_RX_ISR_EVENT_FLAG")
TI ARM Assembler PC v18.1.3 Wed Dec 12 17:41:42 2018

Tools Copyright (c) 1996-2017 Texas Instruments Incorporated
C:\Users\THE_WO~1\AppData\Local\Temp\{EDB6CCF9-DACC-43B8-95CB-11108A63F946} PAGE   11

     551                            .dwattr $C$DW$76, DW_AT_TI_symbol_name("TRANSPORT_RX_ISR_EVENT_FLAG")
     552                            .dwattr $C$DW$76, DW_AT_type(*$C$DW$T$172)
     553                            .dwattr $C$DW$76, DW_AT_location[DW_OP_addr TRANSPORT_RX_ISR_EVENT_FLAG]
     554                            .dwattr $C$DW$76, DW_AT_decl_file("../Application/CoP/NPI/npi_task.c")
     555                            .dwattr $C$DW$76, DW_AT_decl_line(0xfd)
     556                            .dwattr $C$DW$76, DW_AT_decl_column(0x11)
     557                    
     558          0000000C! stackServiceID: .set    ||$O1$$||+12
     559                    $C$DW$77        .dwtag  DW_TAG_variable
     560                            .dwattr $C$DW$77, DW_AT_name("stackServiceID")
     561                            .dwattr $C$DW$77, DW_AT_TI_symbol_name("stackServiceID")
     562                            .dwattr $C$DW$77, DW_AT_type(*$C$DW$T$152)
     563                            .dwattr $C$DW$77, DW_AT_location[DW_OP_addr stackServiceID]
     564                            .dwattr $C$DW$77, DW_AT_decl_file("../Application/CoP/NPI/npi_task.c")
     565                            .dwattr $C$DW$77, DW_AT_decl_line(0xb6)
     566                            .dwattr $C$DW$77, DW_AT_decl_column(0x11)
     567                    
     568          00000010! npiTxQueue:     .set    ||$O1$$||+16
     569                    $C$DW$78        .dwtag  DW_TAG_variable
     570                            .dwattr $C$DW$78, DW_AT_name("npiTxQueue")
     571                            .dwattr $C$DW$78, DW_AT_TI_symbol_name("npiTxQueue")
     572                            .dwattr $C$DW$78, DW_AT_type(*$C$DW$T$484)
     573                            .dwattr $C$DW$78, DW_AT_location[DW_OP_addr npiTxQueue]
     574                            .dwattr $C$DW$78, DW_AT_decl_file("../Application/CoP/NPI/npi_task.c")
     575                            .dwattr $C$DW$78, DW_AT_decl_line(0xc2)
     576                            .dwattr $C$DW$78, DW_AT_decl_column(0x15)
     577                    
     578          00000014! npiRxQueue:     .set    ||$O1$$||+20
     579                    $C$DW$79        .dwtag  DW_TAG_variable
     580                            .dwattr $C$DW$79, DW_AT_name("npiRxQueue")
     581                            .dwattr $C$DW$79, DW_AT_TI_symbol_name("npiRxQueue")
     582                            .dwattr $C$DW$79, DW_AT_type(*$C$DW$T$484)
     583                            .dwattr $C$DW$79, DW_AT_location[DW_OP_addr npiRxQueue]
     584                            .dwattr $C$DW$79, DW_AT_decl_file("../Application/CoP/NPI/npi_task.c")
     585                            .dwattr $C$DW$79, DW_AT_decl_line(0xc6)
     586                            .dwattr $C$DW$79, DW_AT_decl_column(0x15)
     587                    
     588          00000018! lastQueuedTxMsg:        .set    ||$O1$$||+24
     589                    $C$DW$80        .dwtag  DW_TAG_variable
     590                            .dwattr $C$DW$80, DW_AT_name("lastQueuedTxMsg")
     591                            .dwattr $C$DW$80, DW_AT_TI_symbol_name("lastQueuedTxMsg")
     592                            .dwattr $C$DW$80, DW_AT_type(*$C$DW$T$155)
     593                            .dwattr $C$DW$80, DW_AT_location[DW_OP_addr lastQueuedTxMsg]
     594                            .dwattr $C$DW$80, DW_AT_decl_file("../Application/CoP/NPI/npi_task.c")
     595                            .dwattr $C$DW$80, DW_AT_decl_line(0xdf)
     596                            .dwattr $C$DW$80, DW_AT_decl_column(0x11)
     597                    
     598          0000001C! appSem: .set    ||$O1$$||+28
     599                    $C$DW$81        .dwtag  DW_TAG_variable
     600                            .dwattr $C$DW$81, DW_AT_name("appSem")
     601                            .dwattr $C$DW$81, DW_AT_TI_symbol_name("appSem")
     602                            .dwattr $C$DW$81, DW_AT_type(*$C$DW$T$715)
     603                            .dwattr $C$DW$81, DW_AT_location[DW_OP_addr appSem]
     604                            .dwattr $C$DW$81, DW_AT_decl_file("../Application/CoP/NPI/npi_task.c")
     605                            .dwattr $C$DW$81, DW_AT_decl_line(0xe9)
TI ARM Assembler PC v18.1.3 Wed Dec 12 17:41:42 2018

Tools Copyright (c) 1996-2017 Texas Instruments Incorporated
C:\Users\THE_WO~1\AppData\Local\Temp\{EDB6CCF9-DACC-43B8-95CB-11108A63F946} PAGE   12

     606                            .dwattr $C$DW$81, DW_AT_decl_column(0x18)
     607                    
     608          00000020! incomingRXEventAppCBFunc:       .set    ||$O1$$||+32
     609                    $C$DW$82        .dwtag  DW_TAG_variable
     610                            .dwattr $C$DW$82, DW_AT_name("incomingRXEventAppCBFunc")
     611                            .dwattr $C$DW$82, DW_AT_TI_symbol_name("incomingRXEventAppCBFunc")
     612                            .dwattr $C$DW$82, DW_AT_type(*$C$DW$T$879)
     613                            .dwattr $C$DW$82, DW_AT_location[DW_OP_addr incomingRXEventAppCBFunc]
     614                            .dwattr $C$DW$82, DW_AT_decl_file("../Application/CoP/NPI/npi_task.c")
     615                            .dwattr $C$DW$82, DW_AT_decl_line(0x103)
     616                            .dwattr $C$DW$82, DW_AT_decl_column(0x20)
     617                    
     618          00000024! incomingTXEventAppCBFunc:       .set    ||$O1$$||+36
     619                    $C$DW$83        .dwtag  DW_TAG_variable
     620                            .dwattr $C$DW$83, DW_AT_name("incomingTXEventAppCBFunc")
     621                            .dwattr $C$DW$83, DW_AT_TI_symbol_name("incomingTXEventAppCBFunc")
     622                            .dwattr $C$DW$83, DW_AT_type(*$C$DW$T$879)
     623                            .dwattr $C$DW$83, DW_AT_location[DW_OP_addr incomingTXEventAppCBFunc]
     624                            .dwattr $C$DW$83, DW_AT_decl_file("../Application/CoP/NPI/npi_task.c")
     625                            .dwattr $C$DW$83, DW_AT_decl_line(0x10d)
     626                            .dwattr $C$DW$83, DW_AT_decl_column(0x20)
     627                    
     628          00000028! npiTaskStruct:  .set    ||$O1$$||+40
     629                    $C$DW$84        .dwtag  DW_TAG_variable
     630                            .dwattr $C$DW$84, DW_AT_name("npiTaskStruct")
     631                            .dwattr $C$DW$84, DW_AT_TI_symbol_name("npiTaskStruct")
     632                            .dwattr $C$DW$84, DW_AT_type(*$C$DW$T$848)
     633                            .dwattr $C$DW$84, DW_AT_location[DW_OP_addr npiTaskStruct]
     634                            .dwattr $C$DW$84, DW_AT_decl_file("../Application/CoP/NPI/npi_task.c")
     635                            .dwattr $C$DW$84, DW_AT_decl_line(0xba)
     636                            .dwattr $C$DW$84, DW_AT_decl_column(0x14)
     637                    
     638          00000078! npiTaskStack:   .set    ||$O1$$||+120
     639                            .global npiTaskStack
     640                    $C$DW$85        .dwtag  DW_TAG_variable
     641                            .dwattr $C$DW$85, DW_AT_name("npiTaskStack")
     642                            .dwattr $C$DW$85, DW_AT_TI_symbol_name("npiTaskStack")
     643                            .dwattr $C$DW$85, DW_AT_location[DW_OP_addr npiTaskStack]
     644                            .dwattr $C$DW$85, DW_AT_type(*$C$DW$T$1541)
     645                            .dwattr $C$DW$85, DW_AT_external
     646                            .dwattr $C$DW$85, DW_AT_decl_file("../Application/CoP/NPI/npi_task.c")
     647                            .dwattr $C$DW$85, DW_AT_decl_line(0xbe)
     648                            .dwattr $C$DW$85, DW_AT_decl_column(0x06)
     649                    
     650                    ;       C:\ti\ccsv8\tools\compiler\ti-cgt-arm_18.1.3.LTS\bin\armopt.exe C:/Users/The_Wonderer/Google D
     651 00000000                   .sect   ".text:NPITask_transportRXCallBack"
     652                            .clink
     653                            .thumbfunc NPITask_transportRXCallBack
     654 00000000                   .thumb
     655                    
     656                    $C$DW$86        .dwtag  DW_TAG_subprogram
     657                            .dwattr $C$DW$86, DW_AT_name("NPITask_transportRXCallBack")
     658                            .dwattr $C$DW$86, DW_AT_low_pc(NPITask_transportRXCallBack)
     659                            .dwattr $C$DW$86, DW_AT_high_pc(0x00)
     660                            .dwattr $C$DW$86, DW_AT_TI_symbol_name("NPITask_transportRXCallBack")
TI ARM Assembler PC v18.1.3 Wed Dec 12 17:41:42 2018

Tools Copyright (c) 1996-2017 Texas Instruments Incorporated
C:\Users\THE_WO~1\AppData\Local\Temp\{EDB6CCF9-DACC-43B8-95CB-11108A63F946} PAGE   13

     661                            .dwattr $C$DW$86, DW_AT_TI_begin_file("../Application/CoP/NPI/npi_task.c")
     662                            .dwattr $C$DW$86, DW_AT_TI_begin_line(0x518)
     663                            .dwattr $C$DW$86, DW_AT_TI_begin_column(0x0d)
     664                            .dwattr $C$DW$86, DW_AT_decl_file("../Application/CoP/NPI/npi_task.c")
     665                            .dwattr $C$DW$86, DW_AT_decl_line(0x518)
     666                            .dwattr $C$DW$86, DW_AT_decl_column(0x0d)
     667                            .dwattr $C$DW$86, DW_AT_TI_max_frame_size(0x08)
     668                            .dwpsn  file "../Application/CoP/NPI/npi_task.c",line 1305,column 1,is_stmt,address NPITask_tr
     669                    
     670                            .dwfde $C$DW$CIE, NPITask_transportRXCallBack
     671                    $C$DW$87        .dwtag  DW_TAG_formal_parameter
     672                            .dwattr $C$DW$87, DW_AT_name("size")
     673                            .dwattr $C$DW$87, DW_AT_TI_symbol_name("size")
     674                            .dwattr $C$DW$87, DW_AT_type(*$C$DW$T$10)
     675                            .dwattr $C$DW$87, DW_AT_location[DW_OP_reg0]
     676                    
     677                    
     678                    ;*****************************************************************************
     679                    ;* FUNCTION NAME: NPITask_transportRXCallBack                                *
     680                    ;*                                                                           *
     681                    ;*   Regs Modified     : A1,A2,A3,A4,V1,V9,SP,LR,SR                          *
     682                    ;*   Regs Used         : A1,A2,A3,A4,V1,V9,SP,LR,SR                          *
     683                    ;*   Local Frame Size  : 0 Args + 0 Auto + 8 Save = 8 byte                   *
     684                    ;*****************************************************************************
     685                    NPITask_transportRXCallBack:
     686                    ;* --------------------------------------------------------------------------*
     687                    ;* A1    assigned to $O$C1
     688                    ;* V1    assigned to size
     689                    $C$DW$88        .dwtag  DW_TAG_variable
     690                            .dwattr $C$DW$88, DW_AT_name("size")
     691                            .dwattr $C$DW$88, DW_AT_TI_symbol_name("size")
     692                            .dwattr $C$DW$88, DW_AT_type(*$C$DW$T$1212)
     693                            .dwattr $C$DW$88, DW_AT_location[DW_OP_reg4]
     694                    
     695                            .dwcfi  cfa_offset, 0
     696 00000000 B510              PUSH      {V1, LR}              ; [DPU_V7M3_PIPE]  ; [ORIG 16-BIT INS]
     697                            .dwcfi  cfa_offset, 8
     698                            .dwcfi  save_reg_to_mem, 14, -4
     699                            .dwcfi  save_reg_to_mem, 4, -8
     700 00000002 4604              MOV       V1, A1                ; [DPU_V7M3_PIPE] |1305|  ; [ORIG 16-BIT INS]
     701                            .dwpsn  file "../Application/CoP/NPI/npi_task.c",line 1317,column 5,is_stmt,isa 1
     702                    $C$DW$89        .dwtag  DW_TAG_TI_branch
     703                            .dwattr $C$DW$89, DW_AT_low_pc(0x00)
     704                            .dwattr $C$DW$89, DW_AT_name("NPIRxBuf_GetRxBufAvail")
     705                            .dwattr $C$DW$89, DW_AT_TI_call
     706                    
     707 00000004 FFFEF7FF!         BL        NPIRxBuf_GetRxBufAvail ; [DPU_V7M3_PIPE] |1317|  ; [KEEP 32-BIT INS]
     708                            ; CALL OCCURS {NPIRxBuf_GetRxBufAvail }  ; [] |1317| 
     709 00000008 42A0              CMP       A1, V1                ; [DPU_V7M3_PIPE] |1317|  ; [ORIG 16-BIT INS]
     710 0000000a DD09              BLE       ||$C$L1||             ; [DPU_V7M3_PIPE] |1317|  ; [ORIG 16-BIT INS]
     711                            ; BRANCHCC OCCURS {||$C$L1||}    ; [] |1317| 
     712                    ;* --------------------------------------------------------------------------*
     713                            .dwcfi  remember_state
     714                            .dwpsn  file "../Application/CoP/NPI/npi_task.c",line 1319,column 9,is_stmt,isa 1
     715 0000000c B2A0              UXTH      A1, V1                ; [DPU_V7M3_PIPE] |1319|  ; [ORIG 16-BIT INS]
TI ARM Assembler PC v18.1.3 Wed Dec 12 17:41:42 2018

Tools Copyright (c) 1996-2017 Texas Instruments Incorporated
C:\Users\THE_WO~1\AppData\Local\Temp\{EDB6CCF9-DACC-43B8-95CB-11108A63F946} PAGE   14

     716                    $C$DW$90        .dwtag  DW_TAG_TI_branch
     717                            .dwattr $C$DW$90, DW_AT_low_pc(0x00)
     718                            .dwattr $C$DW$90, DW_AT_name("NPIRxBuf_Read")
     719                            .dwattr $C$DW$90, DW_AT_TI_call
     720                    
     721 0000000e FFFEF7FF!         BL        NPIRxBuf_Read         ; [DPU_V7M3_PIPE] |1319|  ; [KEEP 32-BIT INS]
     722                            ; CALL OCCURS {NPIRxBuf_Read }   ; [] |1319| 
     723                            .dwpsn  file "../Application/CoP/NPI/npi_task.c",line 1323,column 9,is_stmt,isa 1
     724 00000012 4804              LDR       A1, $C$CON1           ; [DPU_V7M3_PIPE] |1323|  ; [ORIG 16-BIT INS]
     725 00000014 2102              MOVS      A2, #2                ; [DPU_V7M3_PIPE] |1323|  ; [ORIG 16-BIT INS]
     726 00000016 8141              STRH      A2, [A1, #10]         ; [DPU_V7M3_PIPE] |1323|  ; [ORIG 16-BIT INS]
     727                            .dwpsn  file "../Application/CoP/NPI/npi_task.c",line 1324,column 9,is_stmt,isa 1
     728 00000018 69C0              LDR       A1, [A1, #28]         ; [DPU_V7M3_PIPE] |1324|  ; [ORIG 16-BIT INS]
     729                    $C$DW$91        .dwtag  DW_TAG_TI_branch
     730                            .dwattr $C$DW$91, DW_AT_low_pc(0x00)
     731                            .dwattr $C$DW$91, DW_AT_name("ti_sysbios_knl_Semaphore_post__E")
     732                            .dwattr $C$DW$91, DW_AT_TI_call
     733                    
     734 0000001a FFFEF7FF!         BL        ti_sysbios_knl_Semaphore_post__E ; [DPU_V7M3_PIPE] |1324|  ; [KEEP 32-BIT INS]
     735                            ; CALL OCCURS {ti_sysbios_knl_Semaphore_post__E }  ; [] |1324| 
     736                    $C$DW$92        .dwtag  DW_TAG_TI_branch
     737                            .dwattr $C$DW$92, DW_AT_low_pc(0x00)
     738                            .dwattr $C$DW$92, DW_AT_TI_return
     739                    
     740 0000001e BD10              POP       {V1, PC}              ; [DPU_V7M3_PIPE]  ; [ORIG 16-BIT INS]
     741                            .dwcfi  cfa_offset, 0
     742                            .dwcfi  restore_reg, 4
     743                            ; BRANCH OCCURS                  ; [] 
     744                            .dwcfi  restore_state
     745                    ;* --------------------------------------------------------------------------*
     746                    ;*   BEGIN LOOP ||$C$L1||
     747                    ;*
     748                    ;*   Loop source line                : 1331
     749                    ;*   Loop closing brace source line  : 1331
     750                    ;*   Known Minimum Trip Count        : 1
     751                    ;*   Known Maximum Trip Count        : 4294967295
     752                    ;*   Known Max Trip Count Factor     : 1
     753                    ;* --------------------------------------------------------------------------*
     754 00000020           ||$C$L1||:    
     755                            .dwpsn  file "../Application/CoP/NPI/npi_task.c",line 1331,column 9,is_stmt,isa 1
     756 00000020 E7FE              B         ||$C$L1||             ; [DPU_V7M3_PIPE] |1331|  ; [ORIG 16-BIT INS]
     757                            ; BRANCH OCCURS {||$C$L1||}      ; [] |1331| 
     758                    ;* --------------------------------------------------------------------------*
     759                            .dwattr $C$DW$86, DW_AT_TI_end_file("../Application/CoP/NPI/npi_task.c")
     760                            .dwattr $C$DW$86, DW_AT_TI_end_line(0x535)
     761                            .dwattr $C$DW$86, DW_AT_TI_end_column(0x01)
     762                            .dwendentry
     763                            .dwendtag $C$DW$86
     764                    
     765 00000000                   .sect   ".text:NPITask_MRDYEventCB"
     766                            .clink
     767                            .thumbfunc NPITask_MRDYEventCB
     768 00000000                   .thumb
     769                    
     770                    $C$DW$93        .dwtag  DW_TAG_subprogram
TI ARM Assembler PC v18.1.3 Wed Dec 12 17:41:42 2018

Tools Copyright (c) 1996-2017 Texas Instruments Incorporated
C:\Users\THE_WO~1\AppData\Local\Temp\{EDB6CCF9-DACC-43B8-95CB-11108A63F946} PAGE   15

     771                            .dwattr $C$DW$93, DW_AT_name("NPITask_MRDYEventCB")
     772                            .dwattr $C$DW$93, DW_AT_low_pc(NPITask_MRDYEventCB)
     773                            .dwattr $C$DW$93, DW_AT_high_pc(0x00)
     774                            .dwattr $C$DW$93, DW_AT_TI_symbol_name("NPITask_MRDYEventCB")
     775                            .dwattr $C$DW$93, DW_AT_TI_begin_file("../Application/CoP/NPI/npi_task.c")
     776                            .dwattr $C$DW$93, DW_AT_TI_begin_line(0x53e)
     777                            .dwattr $C$DW$93, DW_AT_TI_begin_column(0x0d)
     778                            .dwattr $C$DW$93, DW_AT_decl_file("../Application/CoP/NPI/npi_task.c")
     779                            .dwattr $C$DW$93, DW_AT_decl_line(0x53e)
     780                            .dwattr $C$DW$93, DW_AT_decl_column(0x0d)
     781                            .dwattr $C$DW$93, DW_AT_TI_max_frame_size(0x00)
     782                            .dwpsn  file "../Application/CoP/NPI/npi_task.c",line 1343,column 1,is_stmt,address NPITask_MR
     783                    
     784                            .dwfde $C$DW$CIE, NPITask_MRDYEventCB
     785                    $C$DW$94        .dwtag  DW_TAG_formal_parameter
     786                            .dwattr $C$DW$94, DW_AT_name("size")
     787                            .dwattr $C$DW$94, DW_AT_TI_symbol_name("size")
     788                            .dwattr $C$DW$94, DW_AT_type(*$C$DW$T$10)
     789                            .dwattr $C$DW$94, DW_AT_location[DW_OP_reg0]
     790                    
     791                    
     792                    ;*****************************************************************************
     793                    ;* FUNCTION NAME: NPITask_MRDYEventCB                                        *
     794                    ;*                                                                           *
     795                    ;*   Regs Modified     : A1,A2,A3,A4,V9,LR,SR                                *
     796                    ;*   Regs Used         : A1,A2,A3,A4,V9,SP,LR,SR                             *
     797                    ;*   Local Frame Size  : 0 Args + 0 Auto + 0 Save = 0 byte                   *
     798                    ;*****************************************************************************
     799 00000000           NPITask_MRDYEventCB:
     800                    ;* --------------------------------------------------------------------------*
     801                    ;* A1    assigned to $O$C1
     802                            .dwcfi  cfa_offset, 0
     803                            .dwpsn  file "../Application/CoP/NPI/npi_task.c",line 1347,column 5,is_stmt,isa 1
     804 00000000 4802              LDR       A1, $C$CON3           ; [DPU_V7M3_PIPE] |1347|  ; [ORIG 16-BIT INS]
     805 00000002 2180              MOVS      A2, #128              ; [DPU_V7M3_PIPE] |1347|  ; [ORIG 16-BIT INS]
     806 00000004 8101              STRH      A2, [A1, #8]          ; [DPU_V7M3_PIPE] |1347|  ; [ORIG 16-BIT INS]
     807                            .dwpsn  file "../Application/CoP/NPI/npi_task.c",line 1348,column 5,is_stmt,isa 1
     808 00000006 69C0              LDR       A1, [A1, #28]         ; [DPU_V7M3_PIPE] |1348|  ; [ORIG 16-BIT INS]
     809                    $C$DW$95        .dwtag  DW_TAG_TI_branch
     810                            .dwattr $C$DW$95, DW_AT_low_pc(0x00)
     811                            .dwattr $C$DW$95, DW_AT_name("ti_sysbios_knl_Semaphore_post__E")
     812                            .dwattr $C$DW$95, DW_AT_TI_call
     813                            .dwattr $C$DW$95, DW_AT_TI_return
     814                    
     815 00000008 BFFEF7FF!         CRET      ti_sysbios_knl_Semaphore_post__E ; [DPU_V7M3_PIPE] |1348|  ; [KEEP 32-BIT INS]
     816                            ; CALL OCCURS {ti_sysbios_knl_Semaphore_post__E }  ; [] |1348| 
     817                            .dwattr $C$DW$93, DW_AT_TI_end_file("../Application/CoP/NPI/npi_task.c")
     818                            .dwattr $C$DW$93, DW_AT_TI_end_line(0x546)
     819                            .dwattr $C$DW$93, DW_AT_TI_end_column(0x01)
     820                            .dwendentry
     821                            .dwendtag $C$DW$93
     822                    
     823 00000000                   .sect   ".text:ICall_malloc"
     824                            .clink
     825                            .thumbfunc ICall_malloc
TI ARM Assembler PC v18.1.3 Wed Dec 12 17:41:42 2018

Tools Copyright (c) 1996-2017 Texas Instruments Incorporated
C:\Users\THE_WO~1\AppData\Local\Temp\{EDB6CCF9-DACC-43B8-95CB-11108A63F946} PAGE   16

     826 00000000                   .thumb
     827                    
     828                    $C$DW$96        .dwtag  DW_TAG_subprogram
     829                            .dwattr $C$DW$96, DW_AT_name("ICall_malloc")
     830                            .dwattr $C$DW$96, DW_AT_low_pc(ICall_malloc)
     831                            .dwattr $C$DW$96, DW_AT_high_pc(0x00)
     832                            .dwattr $C$DW$96, DW_AT_TI_symbol_name("ICall_malloc")
     833                            .dwattr $C$DW$96, DW_AT_type(*$C$DW$T$3)
     834                            .dwattr $C$DW$96, DW_AT_TI_begin_file("C:/ti/simplelink_cc13x0_sdk_2_30_00_20/source/ti/ti154s
     835                            .dwattr $C$DW$96, DW_AT_TI_begin_line(0x7c2)
     836                            .dwattr $C$DW$96, DW_AT_TI_begin_column(0x0e)
     837                            .dwattr $C$DW$96, DW_AT_decl_file("C:/ti/simplelink_cc13x0_sdk_2_30_00_20/source/ti/ti154stack
     838                            .dwattr $C$DW$96, DW_AT_decl_line(0x7c2)
     839                            .dwattr $C$DW$96, DW_AT_decl_column(0x0e)
     840                            .dwattr $C$DW$96, DW_AT_TI_max_frame_size(0x10)
     841                            .dwpsn  file "C:/ti/simplelink_cc13x0_sdk_2_30_00_20/source/ti/ti154stack/icall/src/inc/icall.
     842                    
     843                            .dwfde $C$DW$CIE, ICall_malloc
     844                    $C$DW$97        .dwtag  DW_TAG_formal_parameter
     845                            .dwattr $C$DW$97, DW_AT_name("size")
     846                            .dwattr $C$DW$97, DW_AT_TI_symbol_name("size")
     847                            .dwattr $C$DW$97, DW_AT_type(*$C$DW$T$10)
     848                            .dwattr $C$DW$97, DW_AT_location[DW_OP_reg0]
     849                    
     850                    
     851                    ;*****************************************************************************
     852                    ;* FUNCTION NAME: ICall_malloc                                               *
     853                    ;*                                                                           *
     854                    ;*   Regs Modified     : A1,A2,A3,A4,V9,SP,LR,SR                             *
     855                    ;*   Regs Used         : A1,A2,A3,A4,V9,SP,LR,SR                             *
     856                    ;*   Local Frame Size  : 0 Args + 12 Auto + 4 Save = 16 byte                 *
     857                    ;*****************************************************************************
     858                    ICall_malloc:
     859                    ;* --------------------------------------------------------------------------*
     860                    $C$DW$98        .dwtag  DW_TAG_variable
     861                            .dwattr $C$DW$98, DW_AT_name("args")
     862                            .dwattr $C$DW$98, DW_AT_TI_symbol_name("args")
     863                            .dwattr $C$DW$98, DW_AT_type(*$C$DW$T$1559)
     864                            .dwattr $C$DW$98, DW_AT_location[DW_OP_breg13 0]
     865                    
     866                    ;* A1    assigned to size
     867                    $C$DW$99        .dwtag  DW_TAG_variable
     868                            .dwattr $C$DW$99, DW_AT_name("size")
     869                            .dwattr $C$DW$99, DW_AT_TI_symbol_name("size")
     870                            .dwattr $C$DW$99, DW_AT_type(*$C$DW$T$1097)
     871                            .dwattr $C$DW$99, DW_AT_location[DW_OP_reg0]
     872                    
     873                            .dwcfi  cfa_offset, 0
     874 00000000 B50E              PUSH      {A2, A3, A4, LR}      ; [DPU_V7M3_PIPE]  ; [ORIG 16-BIT INS]
     875                            .dwcfi  cfa_offset, 16
     876                            .dwcfi  save_reg_to_mem, 14, -4
     877                            .dwcfi  save_reg_to_mem, 3, -8
     878                            .dwcfi  save_reg_to_mem, 2, -12
     879                            .dwcfi  save_reg_to_mem, 1, -16
     880                            .dwpsn  file "C:/ti/simplelink_cc13x0_sdk_2_30_00_20/source/ti/ti154stack/icall/src/inc/icall.
TI ARM Assembler PC v18.1.3 Wed Dec 12 17:41:42 2018

Tools Copyright (c) 1996-2017 Texas Instruments Incorporated
C:\Users\THE_WO~1\AppData\Local\Temp\{EDB6CCF9-DACC-43B8-95CB-11108A63F946} PAGE   17

     881 00000002 2108              MOVS      A2, #8                ; [DPU_V7M3_PIPE] |1991|  ; [ORIG 16-BIT INS]
     882                            .dwpsn  file "C:/ti/simplelink_cc13x0_sdk_2_30_00_20/source/ti/ti154stack/icall/src/inc/icall.
     883 00000004 9001              STR       A1, [SP, #4]          ; [DPU_V7M3_PIPE] |1993|  ; [ORIG 16-BIT INS]
     884                            .dwpsn  file "C:/ti/simplelink_cc13x0_sdk_2_30_00_20/source/ti/ti154stack/icall/src/inc/icall.
     885 00000006 4807              LDR       A1, $C$CON4           ; [DPU_V7M3_PIPE] |1997|  ; [ORIG 16-BIT INS]
     886                            .dwpsn  file "C:/ti/simplelink_cc13x0_sdk_2_30_00_20/source/ti/ti154stack/icall/src/inc/icall.
     887 00000008 1000F8AD          STRH      A2, [SP, #0]          ; [DPU_V7M3_PIPE] |1991|  ; [KEEP 32-BIT INS]
     888                            .dwpsn  file "C:/ti/simplelink_cc13x0_sdk_2_30_00_20/source/ti/ti154stack/icall/src/inc/icall.
     889 0000000c 2104              MOVS      A2, #4                ; [DPU_V7M3_PIPE] |1992|  ; [ORIG 16-BIT INS]
     890 0000000e 1002F8AD          STRH      A2, [SP, #2]          ; [DPU_V7M3_PIPE] |1992|  ; [KEEP 32-BIT INS]
     891                            .dwpsn  file "C:/ti/simplelink_cc13x0_sdk_2_30_00_20/source/ti/ti154stack/icall/src/inc/icall.
     892 00000012 6801              LDR       A2, [A1, #0]          ; [DPU_V7M3_PIPE] |1997|  ; [ORIG 16-BIT INS]
     893 00000014 4668              MOV       A1, SP                ; [DPU_V7M3_PIPE] |1997|  ; [ORIG 16-BIT INS]
     894                    $C$DW$100       .dwtag  DW_TAG_TI_branch
     895                            .dwattr $C$DW$100, DW_AT_low_pc(0x00)
     896                            .dwattr $C$DW$100, DW_AT_TI_call
     897                            .dwattr $C$DW$100, DW_AT_TI_indirect
     898                    
     899 00000016 4788              BLX       A2                    ; [DPU_V7M3_PIPE] |1997|  ; [ORIG 16-BIT INS]
     900                            ; CALL OCCURS {}                 ; [] |1997| 
     901 00000018 2800              CMP       A1, #0                ; [DPU_V7M3_PIPE] |1997|  ; [ORIG 16-BIT INS]
     902 0000001a BF14              ITE       NE                    ; [DPU_V7M3_PIPE]  ; [ORIG 16-BIT INS]
     903 0000001c 2000              MOVNE     A1, #0                ; [DPU_V7M3_PIPE] |1997|  ; [ORIG 16-BIT INS]
     904 0000001e 9802              LDREQ     A1, [SP, #8]          ; [DPU_V7M3_PIPE] |1997|  ; [ORIG 16-BIT INS]
     905                    $C$DW$101       .dwtag  DW_TAG_TI_branch
     906                            .dwattr $C$DW$101, DW_AT_low_pc(0x00)
     907                            .dwattr $C$DW$101, DW_AT_TI_return
     908                    
     909 00000020 BD0E              POP       {A2, A3, A4, PC}      ; [DPU_V7M3_PIPE]  ; [ORIG 16-BIT INS]
     910                            .dwcfi  cfa_offset, 0
     911                            .dwcfi  restore_reg, 3
     912                            .dwcfi  restore_reg, 2
     913                            .dwcfi  restore_reg, 1
     914                            ; BRANCH OCCURS                  ; [] 
     915                            .dwattr $C$DW$96, DW_AT_TI_end_file("C:/ti/simplelink_cc13x0_sdk_2_30_00_20/source/ti/ti154sta
     916                            .dwattr $C$DW$96, DW_AT_TI_end_line(0x7d0)
     917                            .dwattr $C$DW$96, DW_AT_TI_end_column(0x01)
     918                            .dwendentry
     919                            .dwendtag $C$DW$96
     920                    
     921 00000000                   .sect   ".text:ICall_free"
     922                            .clink
     923                            .thumbfunc ICall_free
     924 00000000                   .thumb
     925                    
     926                    $C$DW$102       .dwtag  DW_TAG_subprogram
     927                            .dwattr $C$DW$102, DW_AT_name("ICall_free")
     928                            .dwattr $C$DW$102, DW_AT_low_pc(ICall_free)
     929                            .dwattr $C$DW$102, DW_AT_high_pc(0x00)
     930                            .dwattr $C$DW$102, DW_AT_TI_symbol_name("ICall_free")
     931                            .dwattr $C$DW$102, DW_AT_TI_begin_file("C:/ti/simplelink_cc13x0_sdk_2_30_00_20/source/ti/ti154
     932                            .dwattr $C$DW$102, DW_AT_TI_begin_line(0x7d6)
     933                            .dwattr $C$DW$102, DW_AT_TI_begin_column(0x0d)
     934                            .dwattr $C$DW$102, DW_AT_decl_file("C:/ti/simplelink_cc13x0_sdk_2_30_00_20/source/ti/ti154stac
     935                            .dwattr $C$DW$102, DW_AT_decl_line(0x7d6)
TI ARM Assembler PC v18.1.3 Wed Dec 12 17:41:42 2018

Tools Copyright (c) 1996-2017 Texas Instruments Incorporated
C:\Users\THE_WO~1\AppData\Local\Temp\{EDB6CCF9-DACC-43B8-95CB-11108A63F946} PAGE   18

     936                            .dwattr $C$DW$102, DW_AT_decl_column(0x0d)
     937                            .dwattr $C$DW$102, DW_AT_TI_max_frame_size(0x10)
     938                            .dwpsn  file "C:/ti/simplelink_cc13x0_sdk_2_30_00_20/source/ti/ti154stack/icall/src/inc/icall.
     939                    
     940                            .dwfde $C$DW$CIE, ICall_free
     941                    $C$DW$103       .dwtag  DW_TAG_formal_parameter
     942                            .dwattr $C$DW$103, DW_AT_name("msg")
     943                            .dwattr $C$DW$103, DW_AT_TI_symbol_name("msg")
     944                            .dwattr $C$DW$103, DW_AT_type(*$C$DW$T$3)
     945                            .dwattr $C$DW$103, DW_AT_location[DW_OP_reg0]
     946                    
     947                    
     948                    ;*****************************************************************************
     949                    ;* FUNCTION NAME: ICall_free                                                 *
     950                    ;*                                                                           *
     951                    ;*   Regs Modified     : A1,A2,A3,A4,V9,SP,LR,SR                             *
     952                    ;*   Regs Used         : A1,A2,A3,A4,V9,SP,LR,SR                             *
     953                    ;*   Local Frame Size  : 0 Args + 8 Auto + 4 Save = 12 byte                  *
     954                    ;*****************************************************************************
     955                    ICall_free:
     956                    ;* --------------------------------------------------------------------------*
     957                    $C$DW$104       .dwtag  DW_TAG_variable
     958                            .dwattr $C$DW$104, DW_AT_name("args")
     959                            .dwattr $C$DW$104, DW_AT_TI_symbol_name("args")
     960                            .dwattr $C$DW$104, DW_AT_type(*$C$DW$T$1567)
     961                            .dwattr $C$DW$104, DW_AT_location[DW_OP_breg13 0]
     962                    
     963                    ;* A1    assigned to msg
     964                    $C$DW$105       .dwtag  DW_TAG_variable
     965                            .dwattr $C$DW$105, DW_AT_name("msg")
     966                            .dwattr $C$DW$105, DW_AT_TI_symbol_name("msg")
     967                            .dwattr $C$DW$105, DW_AT_type(*$C$DW$T$724)
     968                            .dwattr $C$DW$105, DW_AT_location[DW_OP_reg0]
     969                    
     970                            .dwcfi  cfa_offset, 0
     971 00000000 B50E              PUSH      {A2, A3, A4, LR}      ; [DPU_V7M3_PIPE]  ; [ORIG 16-BIT INS]
     972                            .dwcfi  cfa_offset, 16
     973                            .dwcfi  save_reg_to_mem, 14, -4
     974                            .dwcfi  save_reg_to_mem, 3, -8
     975                            .dwcfi  save_reg_to_mem, 2, -12
     976                            .dwcfi  save_reg_to_mem, 1, -16
     977                            .dwpsn  file "C:/ti/simplelink_cc13x0_sdk_2_30_00_20/source/ti/ti154stack/icall/src/inc/icall.
     978 00000002 2108              MOVS      A2, #8                ; [DPU_V7M3_PIPE] |2009|  ; [ORIG 16-BIT INS]
     979                            .dwpsn  file "C:/ti/simplelink_cc13x0_sdk_2_30_00_20/source/ti/ti154stack/icall/src/inc/icall.
     980 00000004 9001              STR       A1, [SP, #4]          ; [DPU_V7M3_PIPE] |2011|  ; [ORIG 16-BIT INS]
     981                            .dwpsn  file "C:/ti/simplelink_cc13x0_sdk_2_30_00_20/source/ti/ti154stack/icall/src/inc/icall.
     982 00000006 4805              LDR       A1, $C$CON6           ; [DPU_V7M3_PIPE] |2012|  ; [ORIG 16-BIT INS]
     983                            .dwpsn  file "C:/ti/simplelink_cc13x0_sdk_2_30_00_20/source/ti/ti154stack/icall/src/inc/icall.
     984 00000008 1000F8AD          STRH      A2, [SP, #0]          ; [DPU_V7M3_PIPE] |2009|  ; [KEEP 32-BIT INS]
     985                            .dwpsn  file "C:/ti/simplelink_cc13x0_sdk_2_30_00_20/source/ti/ti154stack/icall/src/inc/icall.
     986 0000000c 2105              MOVS      A2, #5                ; [DPU_V7M3_PIPE] |2010|  ; [ORIG 16-BIT INS]
     987 0000000e 1002F8AD          STRH      A2, [SP, #2]          ; [DPU_V7M3_PIPE] |2010|  ; [KEEP 32-BIT INS]
     988                            .dwpsn  file "C:/ti/simplelink_cc13x0_sdk_2_30_00_20/source/ti/ti154stack/icall/src/inc/icall.
     989 00000012 6801              LDR       A2, [A1, #0]          ; [DPU_V7M3_PIPE] |2012|  ; [ORIG 16-BIT INS]
     990 00000014 4668              MOV       A1, SP                ; [DPU_V7M3_PIPE] |2012|  ; [ORIG 16-BIT INS]
TI ARM Assembler PC v18.1.3 Wed Dec 12 17:41:42 2018

Tools Copyright (c) 1996-2017 Texas Instruments Incorporated
C:\Users\THE_WO~1\AppData\Local\Temp\{EDB6CCF9-DACC-43B8-95CB-11108A63F946} PAGE   19

     991                    $C$DW$106       .dwtag  DW_TAG_TI_branch
     992                            .dwattr $C$DW$106, DW_AT_low_pc(0x00)
     993                            .dwattr $C$DW$106, DW_AT_TI_call
     994                            .dwattr $C$DW$106, DW_AT_TI_indirect
     995                    
     996 00000016 4788              BLX       A2                    ; [DPU_V7M3_PIPE] |2012|  ; [ORIG 16-BIT INS]
     997                            ; CALL OCCURS {}                 ; [] |2012| 
     998                    $C$DW$107       .dwtag  DW_TAG_TI_branch
     999                            .dwattr $C$DW$107, DW_AT_low_pc(0x00)
    1000                            .dwattr $C$DW$107, DW_AT_TI_return
    1001                    
    1002 00000018 BD0E              POP       {A2, A3, A4, PC}      ; [DPU_V7M3_PIPE]  ; [ORIG 16-BIT INS]
    1003                            .dwcfi  cfa_offset, 0
    1004                            .dwcfi  restore_reg, 3
    1005                            .dwcfi  restore_reg, 2
    1006                            .dwcfi  restore_reg, 1
    1007                            ; BRANCH OCCURS                  ; [] 
    1008                            .dwattr $C$DW$102, DW_AT_TI_end_file("C:/ti/simplelink_cc13x0_sdk_2_30_00_20/source/ti/ti154st
    1009                            .dwattr $C$DW$102, DW_AT_TI_end_line(0x7dd)
    1010                            .dwattr $C$DW$102, DW_AT_TI_end_column(0x01)
    1011                            .dwendentry
    1012                            .dwendtag $C$DW$102
    1013                    
    1014 00000000                   .sect   ".text:NPITask_incomingFrameCB"
    1015                            .clink
    1016                            .thumbfunc NPITask_incomingFrameCB
    1017 00000000                   .thumb
    1018                    
    1019                    $C$DW$108       .dwtag  DW_TAG_subprogram
    1020                            .dwattr $C$DW$108, DW_AT_name("NPITask_incomingFrameCB")
    1021                            .dwattr $C$DW$108, DW_AT_low_pc(NPITask_incomingFrameCB)
    1022                            .dwattr $C$DW$108, DW_AT_high_pc(0x00)
    1023                            .dwattr $C$DW$108, DW_AT_TI_symbol_name("NPITask_incomingFrameCB")
    1024                            .dwattr $C$DW$108, DW_AT_TI_begin_file("../Application/CoP/NPI/npi_task.c")
    1025                            .dwattr $C$DW$108, DW_AT_TI_begin_line(0x4d3)
    1026                            .dwattr $C$DW$108, DW_AT_TI_begin_column(0x0d)
    1027                            .dwattr $C$DW$108, DW_AT_decl_file("../Application/CoP/NPI/npi_task.c")
    1028                            .dwattr $C$DW$108, DW_AT_decl_line(0x4d3)
    1029                            .dwattr $C$DW$108, DW_AT_decl_column(0x0d)
    1030                            .dwattr $C$DW$108, DW_AT_TI_max_frame_size(0x18)
    1031                            .dwpsn  file "../Application/CoP/NPI/npi_task.c",line 1237,column 1,is_stmt,address NPITask_in
    1032                    
    1033                            .dwfde $C$DW$CIE, NPITask_incomingFrameCB
    1034                    $C$DW$109       .dwtag  DW_TAG_formal_parameter
    1035                            .dwattr $C$DW$109, DW_AT_name("frameSize")
    1036                            .dwattr $C$DW$109, DW_AT_TI_symbol_name("frameSize")
    1037                            .dwattr $C$DW$109, DW_AT_type(*$C$DW$T$10)
    1038                            .dwattr $C$DW$109, DW_AT_location[DW_OP_reg0]
    1039                    
    1040                    $C$DW$110       .dwtag  DW_TAG_formal_parameter
    1041                            .dwattr $C$DW$110, DW_AT_name("pFrame")
    1042                            .dwattr $C$DW$110, DW_AT_TI_symbol_name("pFrame")
    1043                            .dwattr $C$DW$110, DW_AT_type(*$C$DW$T$155)
    1044                            .dwattr $C$DW$110, DW_AT_location[DW_OP_reg1]
    1045                    
TI ARM Assembler PC v18.1.3 Wed Dec 12 17:41:42 2018

Tools Copyright (c) 1996-2017 Texas Instruments Incorporated
C:\Users\THE_WO~1\AppData\Local\Temp\{EDB6CCF9-DACC-43B8-95CB-11108A63F946} PAGE   20

    1046                    $C$DW$111       .dwtag  DW_TAG_formal_parameter
    1047                            .dwattr $C$DW$111, DW_AT_name("msgType")
    1048                            .dwattr $C$DW$111, DW_AT_TI_symbol_name("msgType")
    1049                            .dwattr $C$DW$111, DW_AT_type(*$C$DW$T$10)
    1050                            .dwattr $C$DW$111, DW_AT_location[DW_OP_reg2]
    1051                    
    1052                    
    1053                    ;*****************************************************************************
    1054                    ;* FUNCTION NAME: NPITask_incomingFrameCB                                    *
    1055                    ;*                                                                           *
    1056                    ;*   Regs Modified     : A1,A2,A3,A4,V1,V2,V3,V4,V9,SP,LR,SR                 *
    1057                    ;*   Regs Used         : A1,A2,A3,A4,V1,V2,V3,V4,V9,SP,LR,SR                 *
    1058                    ;*   Local Frame Size  : 0 Args + 0 Auto + 20 Save = 20 byte                 *
    1059                    ;*****************************************************************************
    1060                    NPITask_incomingFrameCB:
    1061                    ;* --------------------------------------------------------------------------*
    1062                    ;* V1    assigned to $O$C1
    1063                    ;* V2    assigned to frameSize
    1064                    $C$DW$112       .dwtag  DW_TAG_variable
    1065                            .dwattr $C$DW$112, DW_AT_name("frameSize")
    1066                            .dwattr $C$DW$112, DW_AT_TI_symbol_name("frameSize")
    1067                            .dwattr $C$DW$112, DW_AT_type(*$C$DW$T$1062)
    1068                            .dwattr $C$DW$112, DW_AT_location[DW_OP_reg5]
    1069                    
    1070                    ;* V1    assigned to pFrame
    1071                    $C$DW$113       .dwtag  DW_TAG_variable
    1072                            .dwattr $C$DW$113, DW_AT_name("pFrame")
    1073                            .dwattr $C$DW$113, DW_AT_TI_symbol_name("pFrame")
    1074                            .dwattr $C$DW$113, DW_AT_type(*$C$DW$T$1061)
    1075                            .dwattr $C$DW$113, DW_AT_location[DW_OP_reg4]
    1076                    
    1077                    ;* V3    assigned to msgType
    1078                    $C$DW$114       .dwtag  DW_TAG_variable
    1079                            .dwattr $C$DW$114, DW_AT_name("msgType")
    1080                            .dwattr $C$DW$114, DW_AT_TI_symbol_name("msgType")
    1081                            .dwattr $C$DW$114, DW_AT_type(*$C$DW$T$655)
    1082                            .dwattr $C$DW$114, DW_AT_location[DW_OP_reg6]
    1083                    
    1084                    ;* V4    assigned to recPtr
    1085                    $C$DW$115       .dwtag  DW_TAG_variable
    1086                            .dwattr $C$DW$115, DW_AT_name("recPtr")
    1087                            .dwattr $C$DW$115, DW_AT_TI_symbol_name("recPtr")
    1088                            .dwattr $C$DW$115, DW_AT_type(*$C$DW$T$712)
    1089                            .dwattr $C$DW$115, DW_AT_location[DW_OP_reg7]
    1090                    
    1091                    ;* A1    assigned to npiMsgPtr
    1092                    $C$DW$116       .dwtag  DW_TAG_variable
    1093                            .dwattr $C$DW$116, DW_AT_name("npiMsgPtr")
    1094                            .dwattr $C$DW$116, DW_AT_TI_symbol_name("npiMsgPtr")
    1095                            .dwattr $C$DW$116, DW_AT_type(*$C$DW$T$218)
    1096                            .dwattr $C$DW$116, DW_AT_location[DW_OP_reg0]
    1097                    
    1098                            .dwcfi  cfa_offset, 0
    1099 00000000 B5F8              PUSH      {A4, V1, V2, V3, V4, LR} ; [DPU_V7M3_PIPE]  ; [ORIG 16-BIT INS]
    1100                            .dwcfi  cfa_offset, 24
TI ARM Assembler PC v18.1.3 Wed Dec 12 17:41:42 2018

Tools Copyright (c) 1996-2017 Texas Instruments Incorporated
C:\Users\THE_WO~1\AppData\Local\Temp\{EDB6CCF9-DACC-43B8-95CB-11108A63F946} PAGE   21

    1101                            .dwcfi  save_reg_to_mem, 14, -4
    1102                            .dwcfi  save_reg_to_mem, 7, -8
    1103                            .dwcfi  save_reg_to_mem, 6, -12
    1104                            .dwcfi  save_reg_to_mem, 5, -16
    1105                            .dwcfi  save_reg_to_mem, 4, -20
    1106                            .dwcfi  save_reg_to_mem, 3, -24
    1107 00000002 4605              MOV       V2, A1                ; [DPU_V7M3_PIPE] |1237|  ; [ORIG 16-BIT INS]
    1108 00000004 4616              MOV       V3, A3                ; [DPU_V7M3_PIPE] |1237|  ; [ORIG 16-BIT INS]
    1109 00000006 460C              MOV       V1, A2                ; [DPU_V7M3_PIPE] |1237|  ; [ORIG 16-BIT INS]
    1110                            .dwpsn  file "../Application/CoP/NPI/npi_task.c",line 1238,column 26,is_stmt,isa 1
    1111 00000008 200C              MOVS      A1, #12               ; [DPU_V7M3_PIPE] |1238|  ; [ORIG 16-BIT INS]
    1112                    $C$DW$117       .dwtag  DW_TAG_TI_branch
    1113                            .dwattr $C$DW$117, DW_AT_low_pc(0x00)
    1114                            .dwattr $C$DW$117, DW_AT_name("ICall_malloc")
    1115                            .dwattr $C$DW$117, DW_AT_TI_call
    1116                    
    1117 0000000a FFFEF7FF!         BL        ICall_malloc          ; [DPU_V7M3_PIPE] |1238|  ; [KEEP 32-BIT INS]
    1118                            ; CALL OCCURS {ICall_malloc }    ; [] |1238| 
    1119 0000000e 4607              MOV       V4, A1                ; [DPU_V7M3_PIPE] |1238|  ; [ORIG 16-BIT INS]
    1120                            .dwpsn  file "../Application/CoP/NPI/npi_task.c",line 1241,column 29,is_stmt,isa 1
    1121 00000010 2008              MOVS      A1, #8                ; [DPU_V7M3_PIPE] |1241|  ; [ORIG 16-BIT INS]
    1122                    $C$DW$118       .dwtag  DW_TAG_TI_branch
    1123                            .dwattr $C$DW$118, DW_AT_low_pc(0x00)
    1124                            .dwattr $C$DW$118, DW_AT_name("ICall_malloc")
    1125                            .dwattr $C$DW$118, DW_AT_TI_call
    1126                    
    1127 00000012 FFFEF7FF!         BL        ICall_malloc          ; [DPU_V7M3_PIPE] |1241|  ; [KEEP 32-BIT INS]
    1128                            ; CALL OCCURS {ICall_malloc }    ; [] |1241| 
    1129 00000016 B1DF              CBZ       V4, ||$C$L3||         ; []  ; [ORIG 16-BIT INS]
    1130                            .dwpsn  file "../Application/CoP/NPI/npi_task.c",line 1243,column 5,is_stmt,isa 1
    1131                            ; BRANCHCC OCCURS {||$C$L3||}    ; [] |1243| 
    1132                    ;* --------------------------------------------------------------------------*
    1133 00000018 B1D0              CBZ       A1, ||$C$L3||         ; []  ; [ORIG 16-BIT INS]
    1134                            ; BRANCHCC OCCURS {||$C$L3||}    ; [] |1243| 
    1135                    ;* --------------------------------------------------------------------------*
    1136                            .dwpsn  file "../Application/CoP/NPI/npi_task.c",line 1245,column 9,is_stmt,isa 1
    1137 0000001a 6044              STR       V1, [A1, #4]          ; [DPU_V7M3_PIPE] |1245|  ; [ORIG 16-BIT INS]
    1138                            .dwpsn  file "../Application/CoP/NPI/npi_task.c",line 1246,column 9,is_stmt,isa 1
    1139 0000001c 8045              STRH      V2, [A1, #2]          ; [DPU_V7M3_PIPE] |1246|  ; [ORIG 16-BIT INS]
    1140                            .dwpsn  file "../Application/CoP/NPI/npi_task.c",line 1247,column 9,is_stmt,isa 1
    1141 0000001e 60B8              STR       A1, [V4, #8]          ; [DPU_V7M3_PIPE] |1247|  ; [ORIG 16-BIT INS]
    1142 00000020 B976              CBNZ      V3, ||$C$L2||         ; []  ; [ORIG 16-BIT INS]
    1143                            .dwpsn  file "../Application/CoP/NPI/npi_task.c",line 1249,column 9,is_stmt,isa 1
    1144                            ; BRANCHCC OCCURS {||$C$L2||}    ; [] |1249| 
    1145                    ;* --------------------------------------------------------------------------*
    1146                            .dwcfi  remember_state
    1147                            .dwpsn  file "../Application/CoP/NPI/npi_task.c",line 1255,column 17,is_stmt,isa 1
    1148 00000022 2100              MOVS      A2, #0                ; [DPU_V7M3_PIPE] |1255|  ; [ORIG 16-BIT INS]
    1149                            .dwpsn  file "../Application/CoP/NPI/npi_task.c",line 1256,column 17,is_stmt,isa 1
    1150 00000024 4C0B              LDR       V1, $C$CON8           ; [DPU_V7M3_PIPE] |1256|  ; [ORIG 16-BIT INS]
    1151                            .dwpsn  file "../Application/CoP/NPI/npi_task.c",line 1255,column 17,is_stmt,isa 1
    1152 00000026 7001              STRB      A2, [A1, #0]          ; [DPU_V7M3_PIPE] |1255|  ; [ORIG 16-BIT INS]
    1153                            .dwpsn  file "../Application/CoP/NPI/npi_task.c",line 1256,column 17,is_stmt,isa 1
    1154 00000028 6960              LDR       A1, [V1, #20]         ; [DPU_V7M3_PIPE] |1256|  ; [ORIG 16-BIT INS]
    1155 0000002a 4639              MOV       A2, V4                ; [DPU_V7M3_PIPE] |1256|  ; [ORIG 16-BIT INS]
TI ARM Assembler PC v18.1.3 Wed Dec 12 17:41:42 2018

Tools Copyright (c) 1996-2017 Texas Instruments Incorporated
C:\Users\THE_WO~1\AppData\Local\Temp\{EDB6CCF9-DACC-43B8-95CB-11108A63F946} PAGE   22

    1156                    $C$DW$119       .dwtag  DW_TAG_TI_branch
    1157                            .dwattr $C$DW$119, DW_AT_low_pc(0x00)
    1158                            .dwattr $C$DW$119, DW_AT_name("ti_sysbios_knl_Queue_enqueue__E")
    1159                            .dwattr $C$DW$119, DW_AT_TI_call
    1160                    
    1161 0000002c FFFEF7FF!         BL        ti_sysbios_knl_Queue_enqueue__E ; [DPU_V7M3_PIPE] |1256|  ; [KEEP 32-BIT INS]
    1162                            ; CALL OCCURS {ti_sysbios_knl_Queue_enqueue__E }  ; [] |1256| 
    1163                            .dwpsn  file "../Application/CoP/NPI/npi_task.c",line 1260,column 17,is_stmt,isa 1
    1164 00000030 88A0              LDRH      A1, [V1, #4]          ; [DPU_V7M3_PIPE] |1260|  ; [ORIG 16-BIT INS]
    1165 00000032 0008F040          ORR       A1, A1, #8            ; [DPU_V7M3_PIPE] |1260|  ; [KEEP 32-BIT INS]
    1166 00000036 80A0              STRH      A1, [V1, #4]          ; [DPU_V7M3_PIPE] |1260|  ; [ORIG 16-BIT INS]
    1167                            .dwpsn  file "../Application/CoP/NPI/npi_task.c",line 1261,column 17,is_stmt,isa 1
    1168 00000038 69E0              LDR       A1, [V1, #28]         ; [DPU_V7M3_PIPE] |1261|  ; [ORIG 16-BIT INS]
    1169                    $C$DW$120       .dwtag  DW_TAG_TI_branch
    1170                            .dwattr $C$DW$120, DW_AT_low_pc(0x00)
    1171                            .dwattr $C$DW$120, DW_AT_name("ti_sysbios_knl_Semaphore_post__E")
    1172                            .dwattr $C$DW$120, DW_AT_TI_call
    1173                    
    1174 0000003a FFFEF7FF!         BL        ti_sysbios_knl_Semaphore_post__E ; [DPU_V7M3_PIPE] |1261|  ; [KEEP 32-BIT INS]
    1175                            ; CALL OCCURS {ti_sysbios_knl_Semaphore_post__E }  ; [] |1261| 
    1176                    $C$DW$121       .dwtag  DW_TAG_TI_branch
    1177                            .dwattr $C$DW$121, DW_AT_low_pc(0x00)
    1178                            .dwattr $C$DW$121, DW_AT_TI_return
    1179                    
    1180 0000003e BDF8              POP       {A4, V1, V2, V3, V4, PC} ; [DPU_V7M3_PIPE]  ; [ORIG 16-BIT INS]
    1181                            .dwcfi  cfa_offset, 0
    1182                            .dwcfi  restore_reg, 7
    1183                            .dwcfi  restore_reg, 6
    1184                            .dwcfi  restore_reg, 5
    1185                            .dwcfi  restore_reg, 4
    1186                            .dwcfi  restore_reg, 3
    1187                            ; BRANCH OCCURS                  ; [] 
    1188                            .dwcfi  restore_state
    1189                    ;* --------------------------------------------------------------------------*
    1190 00000040           ||$C$L2||:    
    1191                            .dwpsn  file "../Application/CoP/NPI/npi_task.c",line 1286,column 17,is_stmt,isa 1
    1192                    $C$DW$122       .dwtag  DW_TAG_TI_branch
    1193                            .dwattr $C$DW$122, DW_AT_low_pc(0x00)
    1194                            .dwattr $C$DW$122, DW_AT_name("ICall_free")
    1195                            .dwattr $C$DW$122, DW_AT_TI_call
    1196                    
    1197 00000040 FFFEF7FF!         BL        ICall_free            ; [DPU_V7M3_PIPE] |1286|  ; [KEEP 32-BIT INS]
    1198                            ; CALL OCCURS {ICall_free }      ; [] |1286| 
    1199                            .dwpsn  file "../Application/CoP/NPI/npi_task.c",line 1287,column 17,is_stmt,isa 1
    1200 00000044 4638              MOV       A1, V4                ; [DPU_V7M3_PIPE] |1287|  ; [ORIG 16-BIT INS]
    1201                    $C$DW$123       .dwtag  DW_TAG_TI_branch
    1202                            .dwattr $C$DW$123, DW_AT_low_pc(0x00)
    1203                            .dwattr $C$DW$123, DW_AT_name("ICall_free")
    1204                            .dwattr $C$DW$123, DW_AT_TI_call
    1205                    
    1206 00000046 FFFEF7FF!         BL        ICall_free            ; [DPU_V7M3_PIPE] |1287|  ; [KEEP 32-BIT INS]
    1207                            ; CALL OCCURS {ICall_free }      ; [] |1287| 
    1208                            .dwpsn  file "../Application/CoP/NPI/npi_task.c",line 1288,column 17,is_stmt,isa 1
    1209 0000004a 4620              MOV       A1, V1                ; [DPU_V7M3_PIPE] |1288|  ; [ORIG 16-BIT INS]
    1210                    $C$DW$124       .dwtag  DW_TAG_TI_branch
TI ARM Assembler PC v18.1.3 Wed Dec 12 17:41:42 2018

Tools Copyright (c) 1996-2017 Texas Instruments Incorporated
C:\Users\THE_WO~1\AppData\Local\Temp\{EDB6CCF9-DACC-43B8-95CB-11108A63F946} PAGE   23

    1211                            .dwattr $C$DW$124, DW_AT_low_pc(0x00)
    1212                            .dwattr $C$DW$124, DW_AT_name("ICall_freeMsg")
    1213                            .dwattr $C$DW$124, DW_AT_TI_call
    1214                    
    1215 0000004c FFFEF7FF!         BL        ICall_freeMsg         ; [DPU_V7M3_PIPE] |1288|  ; [KEEP 32-BIT INS]
    1216                            ; CALL OCCURS {ICall_freeMsg }   ; [] |1288| 
    1217                    ;* --------------------------------------------------------------------------*
    1218                    ||$C$L3||:    
    1219                    $C$DW$125       .dwtag  DW_TAG_TI_branch
    1220                            .dwattr $C$DW$125, DW_AT_low_pc(0x00)
    1221                            .dwattr $C$DW$125, DW_AT_TI_return
    1222                    
    1223 00000050 BDF8              POP       {A4, V1, V2, V3, V4, PC} ; [DPU_V7M3_PIPE]  ; [ORIG 16-BIT INS]
    1224                            .dwcfi  cfa_offset, 0
    1225                            .dwcfi  restore_reg, 7
    1226                            .dwcfi  restore_reg, 6
    1227                            .dwcfi  restore_reg, 5
    1228                            .dwcfi  restore_reg, 4
    1229                            .dwcfi  restore_reg, 3
    1230                            ; BRANCH OCCURS                  ; [] 
    1231                            .dwattr $C$DW$108, DW_AT_TI_end_file("../Application/CoP/NPI/npi_task.c")
    1232                            .dwattr $C$DW$108, DW_AT_TI_end_line(0x50e)
    1233                            .dwattr $C$DW$108, DW_AT_TI_end_column(0x01)
    1234                            .dwendentry
    1235                            .dwendtag $C$DW$108
    1236                    
    1237                    ;**     Parameter deleted: msgSyncHdl == &appSem;
    1238                    ;**     Parameter deleted: entity == &npiAppEntityID;
    1239                    ;**     Parameter deleted: fn == NULL;
    1240                    ;**     Parameter deleted: service == 56;
    1241 00000000                   .sect   ".text:ICall_enrollService"
    1242                            .clink
    1243                            .thumbfunc ICall_enrollService
    1244 00000000                   .thumb
    1245                    
    1246                    $C$DW$126       .dwtag  DW_TAG_subprogram
    1247                            .dwattr $C$DW$126, DW_AT_name("ICall_enrollService")
    1248                            .dwattr $C$DW$126, DW_AT_low_pc(ICall_enrollService)
    1249                            .dwattr $C$DW$126, DW_AT_high_pc(0x00)
    1250                            .dwattr $C$DW$126, DW_AT_TI_symbol_name("ICall_enrollService")
    1251                            .dwattr $C$DW$126, DW_AT_type(*$C$DW$T$240)
    1252                            .dwattr $C$DW$126, DW_AT_TI_begin_file("C:/ti/simplelink_cc13x0_sdk_2_30_00_20/source/ti/ti154
    1253                            .dwattr $C$DW$126, DW_AT_TI_begin_line(0x7ab)
    1254                            .dwattr $C$DW$126, DW_AT_TI_begin_column(0x01)
    1255                            .dwattr $C$DW$126, DW_AT_decl_file("C:/ti/simplelink_cc13x0_sdk_2_30_00_20/source/ti/ti154stac
    1256                            .dwattr $C$DW$126, DW_AT_decl_line(0x7ab)
    1257                            .dwattr $C$DW$126, DW_AT_decl_column(0x01)
    1258                            .dwattr $C$DW$126, DW_AT_TI_max_frame_size(0x18)
    1259                            .dwpsn  file "C:/ti/simplelink_cc13x0_sdk_2_30_00_20/source/ti/ti154stack/icall/src/inc/icall.
    1260                    
    1261                            .dwfde $C$DW$CIE, ICall_enrollService
    1262                    
    1263                    ;*****************************************************************************
    1264                    ;* FUNCTION NAME: ICall_enrollService                                        *
    1265                    ;*                                                                           *
TI ARM Assembler PC v18.1.3 Wed Dec 12 17:41:42 2018

Tools Copyright (c) 1996-2017 Texas Instruments Incorporated
C:\Users\THE_WO~1\AppData\Local\Temp\{EDB6CCF9-DACC-43B8-95CB-11108A63F946} PAGE   24

    1266                    ;*   Regs Modified     : A1,A2,A3,A4,V9,SP,LR,SR                             *
    1267                    ;*   Regs Used         : A1,A2,A3,A4,V9,SP,LR,SR                             *
    1268                    ;*   Local Frame Size  : 0 Args + 20 Auto + 4 Save = 24 byte                 *
    1269                    ;*****************************************************************************
    1270                    ICall_enrollService:
    1271                    ;* --------------------------------------------------------------------------*
    1272                    $C$DW$127       .dwtag  DW_TAG_variable
    1273                            .dwattr $C$DW$127, DW_AT_name("args")
    1274                            .dwattr $C$DW$127, DW_AT_TI_symbol_name("args")
    1275                            .dwattr $C$DW$127, DW_AT_type(*$C$DW$T$1562)
    1276                            .dwattr $C$DW$127, DW_AT_location[DW_OP_breg13 0]
    1277                    
    1278                    ;* A1    assigned to $O$C1
    1279                            .dwcfi  cfa_offset, 0
    1280 00000000 B500              PUSH      {LR}                  ; [DPU_V7M3_PIPE]  ; [ORIG 16-BIT INS]
    1281                            .dwcfi  cfa_offset, 4
    1282                            .dwcfi  save_reg_to_mem, 14, -4
    1283                            .dwpsn  file "C:/ti/simplelink_cc13x0_sdk_2_30_00_20/source/ti/ti154stack/icall/src/inc/icall.
    1284 00000002 2008              MOVS      A1, #8                ; [DPU_V7M3_PIPE] |1970|  ; [ORIG 16-BIT INS]
    1285 00000004 0D14F1AD          SUB       SP, SP, #20           ; [DPU_V7M3_PIPE]  ; [KEEP 32-BIT INS]
    1286                            .dwcfi  cfa_offset, 24
    1287 00000008 0000F8AD          STRH      A1, [SP, #0]          ; [DPU_V7M3_PIPE] |1970|  ; [KEEP 32-BIT INS]
    1288                            .dwpsn  file "C:/ti/simplelink_cc13x0_sdk_2_30_00_20/source/ti/ti154stack/icall/src/inc/icall.
    1289 0000000c 2000              MOVS      A1, #0                ; [DPU_V7M3_PIPE] |1971|  ; [ORIG 16-BIT INS]
    1290 0000000e 0002F8AD          STRH      A1, [SP, #2]          ; [DPU_V7M3_PIPE] |1971|  ; [KEEP 32-BIT INS]
    1291                            .dwpsn  file "C:/ti/simplelink_cc13x0_sdk_2_30_00_20/source/ti/ti154stack/icall/src/inc/icall.
    1292 00000012 2138              MOVS      A2, #56               ; [DPU_V7M3_PIPE] |1972|  ; [ORIG 16-BIT INS]
    1293                            .dwpsn  file "C:/ti/simplelink_cc13x0_sdk_2_30_00_20/source/ti/ti154stack/icall/src/inc/icall.
    1294 00000014 9002              STR       A1, [SP, #8]          ; [DPU_V7M3_PIPE] |1973|  ; [ORIG 16-BIT INS]
    1295                            .dwpsn  file "C:/ti/simplelink_cc13x0_sdk_2_30_00_20/source/ti/ti154stack/icall/src/inc/icall.
    1296 00000016 4807              LDR       A1, $C$CON11          ; [DPU_V7M3_PIPE] |1974|  ; [ORIG 16-BIT INS]
    1297                            .dwpsn  file "C:/ti/simplelink_cc13x0_sdk_2_30_00_20/source/ti/ti154stack/icall/src/inc/icall.
    1298 00000018 1004F8AD          STRH      A2, [SP, #4]          ; [DPU_V7M3_PIPE] |1972|  ; [KEEP 32-BIT INS]
    1299                            .dwpsn  file "C:/ti/simplelink_cc13x0_sdk_2_30_00_20/source/ti/ti154stack/icall/src/inc/icall.
    1300 0000001c 6801              LDR       A2, [A1, #0]          ; [DPU_V7M3_PIPE] |1974|  ; [ORIG 16-BIT INS]
    1301 0000001e 4668              MOV       A1, SP                ; [DPU_V7M3_PIPE] |1974|  ; [ORIG 16-BIT INS]
    1302                    $C$DW$128       .dwtag  DW_TAG_TI_branch
    1303                            .dwattr $C$DW$128, DW_AT_low_pc(0x00)
    1304                            .dwattr $C$DW$128, DW_AT_TI_call
    1305                            .dwattr $C$DW$128, DW_AT_TI_indirect
    1306                    
    1307 00000020 4788              BLX       A2                    ; [DPU_V7M3_PIPE] |1974|  ; [ORIG 16-BIT INS]
    1308                            ; CALL OCCURS {}                 ; [] |1974| 
    1309                            .dwpsn  file "C:/ti/simplelink_cc13x0_sdk_2_30_00_20/source/ti/ti154stack/icall/src/inc/icall.
    1310 00000022 4805              LDR       A1, $C$CON12          ; [DPU_V7M3_PIPE] |1975|  ; [ORIG 16-BIT INS]
    1311 00000024 100CF89D          LDRB      A2, [SP, #12]         ; [DPU_V7M3_PIPE] |1975|  ; [KEEP 32-BIT INS]
    1312 00000028 7001              STRB      A2, [A1, #0]          ; [DPU_V7M3_PIPE] |1975|  ; [ORIG 16-BIT INS]
    1313                            .dwpsn  file "C:/ti/simplelink_cc13x0_sdk_2_30_00_20/source/ti/ti154stack/icall/src/inc/icall.
    1314 0000002a 9904              LDR       A2, [SP, #16]         ; [DPU_V7M3_PIPE] |1976|  ; [ORIG 16-BIT INS]
    1315 0000002c 61C1              STR       A2, [A1, #28]         ; [DPU_V7M3_PIPE] |1976|  ; [ORIG 16-BIT INS]
    1316 0000002e B005              ADD       SP, SP, #20           ; [DPU_V7M3_PIPE]  ; [ORIG 16-BIT INS]
    1317                            .dwcfi  cfa_offset, 4
    1318                    $C$DW$129       .dwtag  DW_TAG_TI_branch
    1319                            .dwattr $C$DW$129, DW_AT_low_pc(0x00)
    1320                            .dwattr $C$DW$129, DW_AT_TI_return
TI ARM Assembler PC v18.1.3 Wed Dec 12 17:41:42 2018

Tools Copyright (c) 1996-2017 Texas Instruments Incorporated
C:\Users\THE_WO~1\AppData\Local\Temp\{EDB6CCF9-DACC-43B8-95CB-11108A63F946} PAGE   25

    1321                    
    1322 00000030 BD00              POP       {PC}                  ; [DPU_V7M3_PIPE]  ; [ORIG 16-BIT INS]
    1323                            .dwcfi  cfa_offset, 0
    1324                            ; BRANCH OCCURS                  ; [] 
    1325                            .dwattr $C$DW$126, DW_AT_TI_end_file("C:/ti/simplelink_cc13x0_sdk_2_30_00_20/source/ti/ti154st
    1326                            .dwattr $C$DW$126, DW_AT_TI_end_line(0x7ba)
    1327                            .dwattr $C$DW$126, DW_AT_TI_end_column(0x01)
    1328                            .dwendentry
    1329                            .dwendtag $C$DW$126
    1330                    
    1331                    ;**     Parameter deleted: appEntity == npiAppEntityID;
    1332 00000000                   .sect   ".text:NPITask_sendBufToStack"
    1333                            .clink
    1334                            .thumbfunc NPITask_sendBufToStack
    1335 00000000                   .thumb
    1336                    
    1337                    $C$DW$130       .dwtag  DW_TAG_subprogram
    1338                            .dwattr $C$DW$130, DW_AT_name("NPITask_sendBufToStack")
    1339                            .dwattr $C$DW$130, DW_AT_low_pc(NPITask_sendBufToStack)
    1340                            .dwattr $C$DW$130, DW_AT_high_pc(0x00)
    1341                            .dwattr $C$DW$130, DW_AT_TI_symbol_name("NPITask_sendBufToStack")
    1342                            .dwattr $C$DW$130, DW_AT_type(*$C$DW$T$240)
    1343                            .dwattr $C$DW$130, DW_AT_TI_begin_file("../Application/CoP/NPI/npi_task.c")
    1344                            .dwattr $C$DW$130, DW_AT_TI_begin_line(0x377)
    1345                            .dwattr $C$DW$130, DW_AT_TI_begin_column(0x14)
    1346                            .dwattr $C$DW$130, DW_AT_decl_file("../Application/CoP/NPI/npi_task.c")
    1347                            .dwattr $C$DW$130, DW_AT_decl_line(0x377)
    1348                            .dwattr $C$DW$130, DW_AT_decl_column(0x14)
    1349                            .dwattr $C$DW$130, DW_AT_TI_max_frame_size(0x18)
    1350                            .dwpsn  file "../Application/CoP/NPI/npi_task.c",line 889,column 1,is_stmt,address NPITask_sen
    1351                    
    1352                            .dwfde $C$DW$CIE, NPITask_sendBufToStack
    1353                    $C$DW$131       .dwtag  DW_TAG_formal_parameter
    1354                            .dwattr $C$DW$131, DW_AT_name("pMsg")
    1355                            .dwattr $C$DW$131, DW_AT_TI_symbol_name("pMsg")
    1356                            .dwattr $C$DW$131, DW_AT_type(*$C$DW$T$218)
    1357                            .dwattr $C$DW$131, DW_AT_location[DW_OP_reg0]
    1358                    
    1359                    
    1360                    ;*****************************************************************************
    1361                    ;* FUNCTION NAME: NPITask_sendBufToStack                                     *
    1362                    ;*                                                                           *
    1363                    ;*   Regs Modified     : A1,A2,A3,A4,V1,V9,SP,LR,SR                          *
    1364                    ;*   Regs Used         : A1,A2,A3,A4,V1,V9,SP,LR,SR                          *
    1365                    ;*   Local Frame Size  : 0 Args + 16 Auto + 8 Save = 24 byte                 *
    1366                    ;*****************************************************************************
    1367                    NPITask_sendBufToStack:
    1368                    ;* --------------------------------------------------------------------------*
    1369                    $C$DW$132       .dwtag  DW_TAG_variable
    1370                            .dwattr $C$DW$132, DW_AT_name("args")
    1371                            .dwattr $C$DW$132, DW_AT_TI_symbol_name("args")
    1372                            .dwattr $C$DW$132, DW_AT_type(*$C$DW$T$1584)
    1373                            .dwattr $C$DW$132, DW_AT_location[DW_OP_breg13 0]
    1374                    
    1375                    ;* A4    assigned to $O$C1
TI ARM Assembler PC v18.1.3 Wed Dec 12 17:41:42 2018

Tools Copyright (c) 1996-2017 Texas Instruments Incorporated
C:\Users\THE_WO~1\AppData\Local\Temp\{EDB6CCF9-DACC-43B8-95CB-11108A63F946} PAGE   26

    1376                    ;* A1    assigned to $O$C2
    1377                    ;* A2    assigned to appEntity
    1378                    $C$DW$133       .dwtag  DW_TAG_variable
    1379                            .dwattr $C$DW$133, DW_AT_name("appEntity")
    1380                            .dwattr $C$DW$133, DW_AT_TI_symbol_name("appEntity")
    1381                            .dwattr $C$DW$133, DW_AT_type(*$C$DW$T$1056)
    1382                            .dwattr $C$DW$133, DW_AT_location[DW_OP_reg1]
    1383                    
    1384                    ;* V1    assigned to pMsg
    1385                    $C$DW$134       .dwtag  DW_TAG_variable
    1386                            .dwattr $C$DW$134, DW_AT_name("pMsg")
    1387                            .dwattr $C$DW$134, DW_AT_TI_symbol_name("pMsg")
    1388                            .dwattr $C$DW$134, DW_AT_type(*$C$DW$T$1594)
    1389                            .dwattr $C$DW$134, DW_AT_location[DW_OP_reg4]
    1390                    
    1391                    ;* A3    assigned to dest
    1392                    $C$DW$135       .dwtag  DW_TAG_variable
    1393                            .dwattr $C$DW$135, DW_AT_name("dest")
    1394                            .dwattr $C$DW$135, DW_AT_TI_symbol_name("dest")
    1395                            .dwattr $C$DW$135, DW_AT_type(*$C$DW$T$201)
    1396                            .dwattr $C$DW$135, DW_AT_location[DW_OP_reg2]
    1397                    
    1398                    ;* A1    assigned to msg
    1399                    $C$DW$136       .dwtag  DW_TAG_variable
    1400                            .dwattr $C$DW$136, DW_AT_name("msg")
    1401                            .dwattr $C$DW$136, DW_AT_TI_symbol_name("msg")
    1402                            .dwattr $C$DW$136, DW_AT_type(*$C$DW$T$3)
    1403                            .dwattr $C$DW$136, DW_AT_location[DW_OP_reg0]
    1404                    
    1405                            .dwcfi  cfa_offset, 0
    1406 00000000 B51F              PUSH      {A1, A2, A3, A4, V1, LR} ; [DPU_V7M3_PIPE]  ; [ORIG 16-BIT INS]
    1407                            .dwcfi  cfa_offset, 24
    1408                            .dwcfi  save_reg_to_mem, 14, -4
    1409                            .dwcfi  save_reg_to_mem, 4, -8
    1410                            .dwcfi  save_reg_to_mem, 3, -12
    1411                            .dwcfi  save_reg_to_mem, 2, -16
    1412                            .dwcfi  save_reg_to_mem, 1, -20
    1413                            .dwcfi  save_reg_to_mem, 0, -24
    1414 00000002 4604              MOV       V1, A1                ; [DPU_V7M3_PIPE] |889|  ; [ORIG 16-BIT INS]
    1415 00000004 480C              LDR       A1, $C$CON15          ; [DPU_V7M3_PIPE] |889|  ; [ORIG 16-BIT INS]
    1416                            .dwpsn  file "C:/ti/simplelink_cc13x0_sdk_2_30_00_20/source/ti/ti154stack/icall/src/inc/icall.
    1417 00000006 2308              MOVS      A4, #8                ; [DPU_V7M3_PIPE] |1858|  ; [ORIG 16-BIT INS]
    1418                            .dwpsn  file "../Application/CoP/NPI/npi_task.c",line 889,column 1,is_stmt,isa 1
    1419 00000008 7801              LDRB      A2, [A1, #0]          ; [DPU_V7M3_PIPE] |889|  ; [ORIG 16-BIT INS]
    1420                            .dwpsn  file "C:/ti/simplelink_cc13x0_sdk_2_30_00_20/source/ti/ti154stack/icall/src/inc/icall.
    1421 0000000a 3000F8AD          STRH      A4, [SP, #0]          ; [DPU_V7M3_PIPE] |1858|  ; [KEEP 32-BIT INS]
    1422                            .dwpsn  file "C:/ti/simplelink_cc13x0_sdk_2_30_00_20/source/ti/ti154stack/icall/src/inc/icall.
    1423 0000000e 8982              LDRH      A3, [A1, #12]         ; [DPU_V7M3_PIPE] |1856|  ; [ORIG 16-BIT INS]
    1424                            .dwpsn  file "C:/ti/simplelink_cc13x0_sdk_2_30_00_20/source/ti/ti154stack/icall/src/inc/icall.
    1425 00000010 1004F88D          STRB      A2, [SP, #4]          ; [DPU_V7M3_PIPE] |1860|  ; [KEEP 32-BIT INS]
    1426                            .dwpsn  file "C:/ti/simplelink_cc13x0_sdk_2_30_00_20/source/ti/ti154stack/icall/src/inc/icall.
    1427 00000014 6860              LDR       A1, [V1, #4]          ; [DPU_V7M3_PIPE] |1856|  ; [ORIG 16-BIT INS]
    1428                            .dwpsn  file "C:/ti/simplelink_cc13x0_sdk_2_30_00_20/source/ti/ti154stack/icall/src/inc/icall.
    1429 00000016 9003              STR       A1, [SP, #12]         ; [DPU_V7M3_PIPE] |1863|  ; [ORIG 16-BIT INS]
    1430                            .dwpsn  file "C:/ti/simplelink_cc13x0_sdk_2_30_00_20/source/ti/ti154stack/icall/src/inc/icall.
TI ARM Assembler PC v18.1.3 Wed Dec 12 17:41:42 2018

Tools Copyright (c) 1996-2017 Texas Instruments Incorporated
C:\Users\THE_WO~1\AppData\Local\Temp\{EDB6CCF9-DACC-43B8-95CB-11108A63F946} PAGE   27

    1431 00000018 2100              MOVS      A2, #0                ; [DPU_V7M3_PIPE] |1862|  ; [ORIG 16-BIT INS]
    1432 0000001a 1008F88D          STRB      A2, [SP, #8]          ; [DPU_V7M3_PIPE] |1862|  ; [KEEP 32-BIT INS]
    1433                            .dwpsn  file "C:/ti/simplelink_cc13x0_sdk_2_30_00_20/source/ti/ti154stack/icall/src/inc/icall.
    1434 0000001e 4807              LDR       A1, $C$CON16          ; [DPU_V7M3_PIPE] |1864|  ; [ORIG 16-BIT INS]
    1435                            .dwpsn  file "C:/ti/simplelink_cc13x0_sdk_2_30_00_20/source/ti/ti154stack/icall/src/inc/icall.
    1436 00000020 3002F8AD          STRH      A4, [SP, #2]          ; [DPU_V7M3_PIPE] |1859|  ; [KEEP 32-BIT INS]
    1437                            .dwpsn  file "C:/ti/simplelink_cc13x0_sdk_2_30_00_20/source/ti/ti154stack/icall/src/inc/icall.
    1438 00000024 6801              LDR       A2, [A1, #0]          ; [DPU_V7M3_PIPE] |1864|  ; [ORIG 16-BIT INS]
    1439                            .dwpsn  file "C:/ti/simplelink_cc13x0_sdk_2_30_00_20/source/ti/ti154stack/icall/src/inc/icall.
    1440 00000026 2006F8AD          STRH      A3, [SP, #6]          ; [DPU_V7M3_PIPE] |1861|  ; [KEEP 32-BIT INS]
    1441                            .dwpsn  file "C:/ti/simplelink_cc13x0_sdk_2_30_00_20/source/ti/ti154stack/icall/src/inc/icall.
    1442 0000002a 4668              MOV       A1, SP                ; [DPU_V7M3_PIPE] |1864|  ; [ORIG 16-BIT INS]
    1443                    $C$DW$137       .dwtag  DW_TAG_TI_branch
    1444                            .dwattr $C$DW$137, DW_AT_low_pc(0x00)
    1445                            .dwattr $C$DW$137, DW_AT_TI_call
    1446                            .dwattr $C$DW$137, DW_AT_TI_indirect
    1447                    
    1448 0000002c 4788              BLX       A2                    ; [DPU_V7M3_PIPE] |1864|  ; [ORIG 16-BIT INS]
    1449                            ; CALL OCCURS {}                 ; [] |1864| 
    1450                            .dwpsn  file "../Application/CoP/NPI/npi_task.c",line 897,column 5,is_stmt,isa 1
    1451 0000002e 4620              MOV       A1, V1                ; [DPU_V7M3_PIPE] |897|  ; [ORIG 16-BIT INS]
    1452                    $C$DW$138       .dwtag  DW_TAG_TI_branch
    1453                            .dwattr $C$DW$138, DW_AT_low_pc(0x00)
    1454                            .dwattr $C$DW$138, DW_AT_name("ICall_free")
    1455                            .dwattr $C$DW$138, DW_AT_TI_call
    1456                    
    1457 00000030 FFFEF7FF!         BL        ICall_free            ; [DPU_V7M3_PIPE] |897|  ; [KEEP 32-BIT INS]
    1458                            ; CALL OCCURS {ICall_free }      ; [] |897| 
    1459 00000034 9000              STR       A1, [SP, #0]          ; [DPU_V7M3_PIPE]  ; [ORIG 16-BIT INS]
    1460                    $C$DW$139       .dwtag  DW_TAG_TI_branch
    1461                            .dwattr $C$DW$139, DW_AT_low_pc(0x00)
    1462                            .dwattr $C$DW$139, DW_AT_TI_return
    1463                    
    1464 00000036 BD1F              POP       {A1, A2, A3, A4, V1, PC} ; [DPU_V7M3_PIPE]  ; [ORIG 16-BIT INS]
    1465                            .dwcfi  cfa_offset, 0
    1466                            .dwcfi  restore_reg, 4
    1467                            .dwcfi  restore_reg, 3
    1468                            .dwcfi  restore_reg, 2
    1469                            .dwcfi  restore_reg, 1
    1470                            .dwcfi  restore_reg, 0
    1471                            ; BRANCH OCCURS                  ; [] 
    1472                            .dwattr $C$DW$130, DW_AT_TI_end_file("../Application/CoP/NPI/npi_task.c")
    1473                            .dwattr $C$DW$130, DW_AT_TI_end_line(0x384)
    1474                            .dwattr $C$DW$130, DW_AT_TI_end_column(0x01)
    1475                            .dwendentry
    1476                            .dwendtag $C$DW$130
    1477                    
    1478 00000000                   .sect   ".text:NPITask_process"
    1479                            .clink
    1480                            .thumbfunc NPITask_process
    1481 00000000                   .thumb
    1482                    
    1483                    $C$DW$140       .dwtag  DW_TAG_subprogram
    1484                            .dwattr $C$DW$140, DW_AT_name("NPITask_process")
    1485                            .dwattr $C$DW$140, DW_AT_low_pc(NPITask_process)
TI ARM Assembler PC v18.1.3 Wed Dec 12 17:41:42 2018

Tools Copyright (c) 1996-2017 Texas Instruments Incorporated
C:\Users\THE_WO~1\AppData\Local\Temp\{EDB6CCF9-DACC-43B8-95CB-11108A63F946} PAGE   28

    1486                            .dwattr $C$DW$140, DW_AT_high_pc(0x00)
    1487                            .dwattr $C$DW$140, DW_AT_TI_symbol_name("NPITask_process")
    1488                            .dwattr $C$DW$140, DW_AT_TI_begin_file("../Application/CoP/NPI/npi_task.c")
    1489                            .dwattr $C$DW$140, DW_AT_TI_begin_line(0x1a6)
    1490                            .dwattr $C$DW$140, DW_AT_TI_begin_column(0x0d)
    1491                            .dwattr $C$DW$140, DW_AT_decl_file("../Application/CoP/NPI/npi_task.c")
    1492                            .dwattr $C$DW$140, DW_AT_decl_line(0x1a6)
    1493                            .dwattr $C$DW$140, DW_AT_decl_column(0x0d)
    1494                            .dwattr $C$DW$140, DW_AT_TI_max_frame_size(0x38)
    1495                            .dwpsn  file "../Application/CoP/NPI/npi_task.c",line 423,column 1,is_stmt,address NPITask_pro
    1496                    
    1497                            .dwfde $C$DW$CIE, NPITask_process
    1498                    
    1499                    ;*****************************************************************************
    1500                    ;* FUNCTION NAME: NPITask_process                                            *
    1501                    ;*                                                                           *
    1502                    ;*   Regs Modified     : A1,A2,A3,A4,V1,V2,V3,V4,V5,V6,V7,V8,V9,SP,LR,SR     *
    1503                    ;*   Regs Used         : A1,A2,A3,A4,V1,V2,V3,V4,V5,V6,V7,V8,V9,SP,LR,SR     *
    1504                    ;*   Local Frame Size  : 0 Args + 20 Auto + 36 Save = 56 byte                *
    1505                    ;*****************************************************************************
    1506                    NPITask_process:
    1507                    ;* --------------------------------------------------------------------------*
    1508                    $C$DW$141       .dwtag  DW_TAG_variable
    1509                            .dwattr $C$DW$141, DW_AT_name("args")
    1510                            .dwattr $C$DW$141, DW_AT_TI_symbol_name("args")
    1511                            .dwattr $C$DW$141, DW_AT_type(*$C$DW$T$1565)
    1512                            .dwattr $C$DW$141, DW_AT_location[DW_OP_breg13 0]
    1513                    
    1514                    $C$DW$142       .dwtag  DW_TAG_variable
    1515                            .dwattr $C$DW$142, DW_AT_name("pMsg")
    1516                            .dwattr $C$DW$142, DW_AT_TI_symbol_name("pMsg")
    1517                            .dwattr $C$DW$142, DW_AT_type(*$C$DW$T$155)
    1518                            .dwattr $C$DW$142, DW_AT_location[DW_OP_breg13 12]
    1519                    
    1520                    ;* A2    assigned to $O$C5
    1521                    ;* A2    assigned to $O$C6
    1522                    ;* A2    assigned to $O$C7
    1523                    ;* A1    assigned to $O$v10
    1524                    ;* A1    assigned to $O$v10
    1525                    ;* A1    assigned to $O$v10
    1526                    ;* A1    assigned to $O$v1
    1527                    ;* A1    assigned to $O$v1
    1528                    ;* V1    assigned to $O$K3
    1529                    ;* V6    assigned to $O$K8
    1530                    ;* V3    assigned to $O$K23
    1531                    ;* V2    assigned to $O$K25
    1532                    ;* A1    assigned to $O$K35
    1533                    ;* V8    assigned to $O$K42
    1534                    ;* A2    assigned to $O$v3
    1535                    ;* A1    assigned to errno
    1536                    $C$DW$143       .dwtag  DW_TAG_variable
    1537                            .dwattr $C$DW$143, DW_AT_name("errno")
    1538                            .dwattr $C$DW$143, DW_AT_TI_symbol_name("errno")
    1539                            .dwattr $C$DW$143, DW_AT_type(*$C$DW$T$240)
    1540                            .dwattr $C$DW$143, DW_AT_location[DW_OP_reg0]
TI ARM Assembler PC v18.1.3 Wed Dec 12 17:41:42 2018

Tools Copyright (c) 1996-2017 Texas Instruments Incorporated
C:\Users\THE_WO~1\AppData\Local\Temp\{EDB6CCF9-DACC-43B8-95CB-11108A63F946} PAGE   29

    1541                    
    1542                    ;* V7    assigned to pMsg
    1543                    $C$DW$144       .dwtag  DW_TAG_variable
    1544                            .dwattr $C$DW$144, DW_AT_name("pMsg")
    1545                            .dwattr $C$DW$144, DW_AT_TI_symbol_name("pMsg")
    1546                            .dwattr $C$DW$144, DW_AT_type(*$C$DW$T$155)
    1547                            .dwattr $C$DW$144, DW_AT_location[DW_OP_reg10]
    1548                    
    1549                    ;* V4    assigned to pNPIMsg
    1550                    $C$DW$145       .dwtag  DW_TAG_variable
    1551                            .dwattr $C$DW$145, DW_AT_name("pNPIMsg")
    1552                            .dwattr $C$DW$145, DW_AT_TI_symbol_name("pNPIMsg")
    1553                            .dwattr $C$DW$145, DW_AT_type(*$C$DW$T$218)
    1554                            .dwattr $C$DW$145, DW_AT_location[DW_OP_reg7]
    1555                    
    1556                    ;* V7    assigned to recPtr
    1557                    $C$DW$146       .dwtag  DW_TAG_variable
    1558                            .dwattr $C$DW$146, DW_AT_name("recPtr")
    1559                            .dwattr $C$DW$146, DW_AT_TI_symbol_name("recPtr")
    1560                            .dwattr $C$DW$146, DW_AT_type(*$C$DW$T$712)
    1561                            .dwattr $C$DW$146, DW_AT_location[DW_OP_reg10]
    1562                    
    1563                    $C$DW$147       .dwtag  DW_TAG_variable
    1564                            .dwattr $C$DW$147, DW_AT_name("key")
    1565                            .dwattr $C$DW$147, DW_AT_TI_symbol_name("key")
    1566                            .dwattr $C$DW$147, DW_AT_type(*$C$DW$T$283)
    1567                            .dwattr $C$DW$147, DW_AT_location[DW_OP_breg13 16]
    1568                    
    1569                    ;* V7    assigned to key
    1570                    $C$DW$148       .dwtag  DW_TAG_variable
    1571                            .dwattr $C$DW$148, DW_AT_name("key")
    1572                            .dwattr $C$DW$148, DW_AT_TI_symbol_name("key")
    1573                            .dwattr $C$DW$148, DW_AT_type(*$C$DW$T$283)
    1574                            .dwattr $C$DW$148, DW_AT_location[DW_OP_reg10]
    1575                    
    1576                    ;* V4    assigned to recPtr
    1577                    $C$DW$149       .dwtag  DW_TAG_variable
    1578                            .dwattr $C$DW$149, DW_AT_name("recPtr")
    1579                            .dwattr $C$DW$149, DW_AT_TI_symbol_name("recPtr")
    1580                            .dwattr $C$DW$149, DW_AT_type(*$C$DW$T$712)
    1581                            .dwattr $C$DW$149, DW_AT_location[DW_OP_reg7]
    1582                    
    1583                    ;* V4    assigned to recPtr
    1584                    $C$DW$150       .dwtag  DW_TAG_variable
    1585                            .dwattr $C$DW$150, DW_AT_name("recPtr")
    1586                            .dwattr $C$DW$150, DW_AT_TI_symbol_name("recPtr")
    1587                            .dwattr $C$DW$150, DW_AT_type(*$C$DW$T$712)
    1588                            .dwattr $C$DW$150, DW_AT_location[DW_OP_reg7]
    1589                    
    1590                            .dwcfi  cfa_offset, 0
    1591 00000000 4FF0E92D          PUSH      {V1, V2, V3, V4, V5, V6, V7, V8, LR} ; [DPU_V7M3_PIPE]  ; [KEEP 32-BIT INS]
    1592                            .dwcfi  cfa_offset, 36
    1593                            .dwcfi  save_reg_to_mem, 14, -4
    1594                            .dwcfi  save_reg_to_mem, 11, -8
    1595                            .dwcfi  save_reg_to_mem, 10, -12
TI ARM Assembler PC v18.1.3 Wed Dec 12 17:41:42 2018

Tools Copyright (c) 1996-2017 Texas Instruments Incorporated
C:\Users\THE_WO~1\AppData\Local\Temp\{EDB6CCF9-DACC-43B8-95CB-11108A63F946} PAGE   30

    1596                            .dwcfi  save_reg_to_mem, 9, -16
    1597                            .dwcfi  save_reg_to_mem, 8, -20
    1598                            .dwcfi  save_reg_to_mem, 7, -24
    1599                            .dwcfi  save_reg_to_mem, 6, -28
    1600                            .dwcfi  save_reg_to_mem, 5, -32
    1601                            .dwcfi  save_reg_to_mem, 4, -36
    1602 00000004 4D78              LDR       V2, $C$CON17          ; [DPU_V7M3_PIPE]  ; [ORIG 16-BIT INS]
    1603 00000006 91E4F8DF          LDR       V6, $C$CON18          ; [DPU_V7M3_PIPE]  ; [KEEP 32-BIT INS]
    1604 0000000a 4C79              LDR       V1, $C$CON21          ; [DPU_V7M3_PIPE]  ; [ORIG 16-BIT INS]
    1605                            .dwpsn  file "C:/ti/simplelink_cc13x0_sdk_2_30_00_20/source/ti/ti154stack/icall/src/inc/icall.
    1606 0000000c 81E4F8DF          LDR       V5, $C$CON22          ; [DPU_V7M3_PIPE] |1904|  ; [KEEP 32-BIT INS]
    1607 00000010 2600              MOVS      V3, #0                ; [DPU_V7M3_PIPE]  ; [ORIG 16-BIT INS]
    1608 00000012 0B09F04F          MOV       V8, #9                ; [DPU_V7M3_PIPE]  ; [KEEP 32-BIT INS]
    1609 00000016 0D14F1AD          SUB       SP, SP, #20           ; [DPU_V7M3_PIPE]  ; [KEEP 32-BIT INS]
    1610                            .dwcfi  cfa_offset, 56
    1611                    ;* --------------------------------------------------------------------------*
    1612                    ;*   BEGIN LOOP ||$C$L4||
    1613                    ;*
    1614                    ;*   Loop source line                : 430
    1615                    ;*   Loop closing brace source line  : 700
    1616                    ;*   Known Minimum Trip Count        : 1
    1617                    ;*   Known Maximum Trip Count        : 4294967295
    1618                    ;*   Known Max Trip Count Factor     : 1
    1619                    ;* --------------------------------------------------------------------------*
    1620 0000001a           ||$C$L4||:    
    1621                            .dwpsn  file "../Application/CoP/NPI/npi_task.c",line 441,column 9,is_stmt,isa 1
    1622 0000001a 69E0              LDR       A1, [V1, #28]         ; [DPU_V7M3_PIPE] |441|  ; [ORIG 16-BIT INS]
    1623 0000001c 31FFF04F          MOV       A2, #-1               ; [DPU_V7M3_PIPE] |441|  ; [KEEP 32-BIT INS]
    1624                    $C$DW$151       .dwtag  DW_TAG_TI_branch
    1625                            .dwattr $C$DW$151, DW_AT_low_pc(0x00)
    1626                            .dwattr $C$DW$151, DW_AT_name("ti_sysbios_knl_Semaphore_pend__E")
    1627                            .dwattr $C$DW$151, DW_AT_TI_call
    1628                    
    1629 00000020 FFFEF7FF!         BL        ti_sysbios_knl_Semaphore_pend__E ; [DPU_V7M3_PIPE] |441|  ; [KEEP 32-BIT INS]
    1630                            ; CALL OCCURS {ti_sysbios_knl_Semaphore_pend__E }  ; [] |441| 
    1631                            .dwpsn  file "../Application/CoP/NPI/npi_task.c",line 447,column 13,is_stmt,isa 1
    1632 00000024 0000F8D9          LDR       A1, [V6, #0]          ; [DPU_V7M3_PIPE] |447|  ; [KEEP 32-BIT INS]
    1633                    $C$DW$152       .dwtag  DW_TAG_TI_branch
    1634                            .dwattr $C$DW$152, DW_AT_low_pc(0x00)
    1635                            .dwattr $C$DW$152, DW_AT_TI_call
    1636                            .dwattr $C$DW$152, DW_AT_TI_indirect
    1637                    
    1638 00000028 4780              BLX       A1                    ; [DPU_V7M3_PIPE] |447|  ; [ORIG 16-BIT INS]
    1639                            ; CALL OCCURS {}                 ; [] |447| 
    1640                            .dwpsn  file "../Application/CoP/NPI/npi_task.c",line 450,column 13,is_stmt,isa 1
    1641 0000002a 8927              LDRH      V4, [V1, #8]          ; [DPU_V7M3_PIPE] |450|  ; [ORIG 16-BIT INS]
    1642 0000002c 88A2              LDRH      A3, [V1, #4]          ; [DPU_V7M3_PIPE] |450|  ; [ORIG 16-BIT INS]
    1643 0000002e 88E1              LDRH      A2, [V1, #6]          ; [DPU_V7M3_PIPE] |450|  ; [ORIG 16-BIT INS]
    1644 00000030 8963              LDRH      A4, [V1, #10]         ; [DPU_V7M3_PIPE] |450|  ; [ORIG 16-BIT INS]
    1645                            .dwpsn  file "../Application/CoP/NPI/npi_task.c",line 454,column 13,is_stmt,isa 1
    1646 00000032 8126              STRH      V3, [V1, #8]          ; [DPU_V7M3_PIPE] |454|  ; [ORIG 16-BIT INS]
    1647                            .dwpsn  file "../Application/CoP/NPI/npi_task.c",line 450,column 13,is_stmt,isa 1
    1648 00000034 4311              ORRS      A2, A2, A3            ; [DPU_V7M3_PIPE] |450|  ; [ORIG 16-BIT INS]
    1649                            .dwpsn  file "../Application/CoP/NPI/npi_task.c",line 453,column 13,is_stmt,isa 1
    1650 00000036 80E6              STRH      V3, [V1, #6]          ; [DPU_V7M3_PIPE] |453|  ; [ORIG 16-BIT INS]
TI ARM Assembler PC v18.1.3 Wed Dec 12 17:41:42 2018

Tools Copyright (c) 1996-2017 Texas Instruments Incorporated
C:\Users\THE_WO~1\AppData\Local\Temp\{EDB6CCF9-DACC-43B8-95CB-11108A63F946} PAGE   31

    1651                            .dwpsn  file "../Application/CoP/NPI/npi_task.c",line 450,column 13,is_stmt,isa 1
    1652 00000038 0201EA47          ORR       A3, V4, A2            ; [DPU_V7M3_PIPE] |450|  ; [KEEP 32-BIT INS]
    1653 0000003c 0102EA43          ORR       A2, A4, A3            ; [DPU_V7M3_PIPE] |450|  ; [KEEP 32-BIT INS]
    1654 00000040 80A1              STRH      A2, [V1, #4]          ; [DPU_V7M3_PIPE] |450|  ; [ORIG 16-BIT INS]
    1655                            .dwpsn  file "../Application/CoP/NPI/npi_task.c",line 458,column 13,is_stmt,isa 1
    1656 00000042 6829              LDR       A2, [V2, #0]          ; [DPU_V7M3_PIPE] |458|  ; [ORIG 16-BIT INS]
    1657                            .dwpsn  file "../Application/CoP/NPI/npi_task.c",line 455,column 13,is_stmt,isa 1
    1658 00000044 8166              STRH      V3, [V1, #10]         ; [DPU_V7M3_PIPE] |455|  ; [ORIG 16-BIT INS]
    1659                            .dwpsn  file "../Application/CoP/NPI/npi_task.c",line 458,column 13,is_stmt,isa 1
    1660                    $C$DW$153       .dwtag  DW_TAG_TI_branch
    1661                            .dwattr $C$DW$153, DW_AT_low_pc(0x00)
    1662                            .dwattr $C$DW$153, DW_AT_TI_call
    1663                            .dwattr $C$DW$153, DW_AT_TI_indirect
    1664                    
    1665 00000046 4788              BLX       A2                    ; [DPU_V7M3_PIPE] |458|  ; [ORIG 16-BIT INS]
    1666                            ; CALL OCCURS {}                 ; [] |458| 
    1667                            .dwpsn  file "../Application/CoP/NPI/npi_task.c",line 461,column 13,is_stmt,isa 1
    1668 00000048 88A0              LDRH      A1, [V1, #4]          ; [DPU_V7M3_PIPE] |461|  ; [ORIG 16-BIT INS]
    1669 0000004a 0A01              LSRS      A2, A1, #8            ; [DPU_V7M3_PIPE] |461|  ; [ORIG 16-BIT INS]
    1670 0000004c BF24              ITT       CS                    ; [DPU_V7M3_PIPE]  ; [ORIG 16-BIT INS]
    1671                            .dwpsn  file "../Application/CoP/NPI/npi_task.c",line 464,column 17,is_stmt,isa 1
    1672 0000004e 0080F020          BICCS     A1, A1, #128          ; [DPU_V7M3_PIPE] |464|  ; [KEEP 32-BIT INS]
    1673 00000052 80A0              STRHCS    A1, [V1, #4]          ; [DPU_V7M3_PIPE] |464|  ; [ORIG 16-BIT INS]
    1674                            .dwpsn  file "C:/ti/simplelink_cc13x0_sdk_2_30_00_20/source/ti/ti154stack/icall/src/inc/icall.
    1675 00000054 4647              MOV       V4, V5                ; [DPU_V7M3_PIPE] |1904|  ; [ORIG 16-BIT INS]
    1676                            .dwpsn  file "C:/ti/simplelink_cc13x0_sdk_2_30_00_20/source/ti/ti154stack/icall/src/inc/icall.
    1677 00000056 B002F8AD          STRH      V8, [SP, #2]          ; [DPU_V7M3_PIPE] |1903|  ; [KEEP 32-BIT INS]
    1678 0000005a 2008              MOVS      A1, #8                ; [DPU_V7M3_PIPE]  ; [ORIG 16-BIT INS]
    1679                            .dwpsn  file "C:/ti/simplelink_cc13x0_sdk_2_30_00_20/source/ti/ti154stack/icall/src/inc/icall.
    1680 0000005c 6839              LDR       A2, [V4, #0]          ; [DPU_V7M3_PIPE] |1904|  ; [ORIG 16-BIT INS]
    1681                            .dwpsn  file "C:/ti/simplelink_cc13x0_sdk_2_30_00_20/source/ti/ti154stack/icall/src/inc/icall.
    1682 0000005e 0000F8AD          STRH      A1, [SP, #0]          ; [DPU_V7M3_PIPE] |1902|  ; [KEEP 32-BIT INS]
    1683                            .dwpsn  file "C:/ti/simplelink_cc13x0_sdk_2_30_00_20/source/ti/ti154stack/icall/src/inc/icall.
    1684 00000062 4668              MOV       A1, SP                ; [DPU_V7M3_PIPE] |1904|  ; [ORIG 16-BIT INS]
    1685                    $C$DW$154       .dwtag  DW_TAG_TI_branch
    1686                            .dwattr $C$DW$154, DW_AT_low_pc(0x00)
    1687                            .dwattr $C$DW$154, DW_AT_TI_call
    1688                            .dwattr $C$DW$154, DW_AT_TI_indirect
    1689                    
    1690 00000064 4788              BLX       A2                    ; [DPU_V7M3_PIPE] |1904|  ; [ORIG 16-BIT INS]
    1691                            ; CALL OCCURS {}                 ; [] |1904| 
    1692                            .dwpsn  file "C:/ti/simplelink_cc13x0_sdk_2_30_00_20/source/ti/ti154stack/icall/src/inc/icall.
    1693 00000066 A008F8DD          LDR       V7, [SP, #8]          ; [DPU_V7M3_PIPE] |1907|  ; [KEEP 32-BIT INS]
    1694                            .dwpsn  file "../Application/CoP/NPI/npi_task.c",line 515,column 13,is_stmt,isa 1
    1695 0000006a 2800              CMP       A1, #0                ; [DPU_V7M3_PIPE] |515|  ; [ORIG 16-BIT INS]
    1696                            .dwpsn  file "C:/ti/simplelink_cc13x0_sdk_2_30_00_20/source/ti/ti154stack/icall/src/inc/icall.
    1697 0000006c A00CF8CD          STR       V7, [SP, #12]         ; [DPU_V7M3_PIPE] |1907|  ; [KEEP 32-BIT INS]
    1698                            .dwpsn  file "../Application/CoP/NPI/npi_task.c",line 515,column 13,is_stmt,isa 1
    1699 00000070 D13B              BNE       ||$C$L11||            ; [DPU_V7M3_PIPE] |515|  ; [ORIG 16-BIT INS]
    1700                            ; BRANCHCC OCCURS {||$C$L11||}   ; [] |515| 
    1701                    ;* --------------------------------------------------------------------------*
    1702                            .dwpsn  file "../Application/CoP/NPI/npi_task.c",line 866,column 5,is_stmt,isa 1
    1703 00000072 7820              LDRB      A1, [V1, #0]          ; [DPU_V7M3_PIPE] |866|  ; [ORIG 16-BIT INS]
    1704 00000074 2006F89D          LDRB      A3, [SP, #6]          ; [DPU_V7M3_PIPE] |866|  ; [KEEP 32-BIT INS]
    1705 00000078 6A61              LDR       A2, [V1, #36]         ; [DPU_V7M3_PIPE] |866|  ; [ORIG 16-BIT INS]
TI ARM Assembler PC v18.1.3 Wed Dec 12 17:41:42 2018

Tools Copyright (c) 1996-2017 Texas Instruments Incorporated
C:\Users\THE_WO~1\AppData\Local\Temp\{EDB6CCF9-DACC-43B8-95CB-11108A63F946} PAGE   32

    1706 0000007a 4290              CMP       A1, A3                ; [DPU_V7M3_PIPE] |866|  ; [ORIG 16-BIT INS]
    1707 0000007c D135              BNE       ||$C$L11||            ; [DPU_V7M3_PIPE] |866|  ; [ORIG 16-BIT INS]
    1708                            ; BRANCHCC OCCURS {||$C$L11||}   ; [] |866| 
    1709                    ;* --------------------------------------------------------------------------*
    1710 0000007e B141              CBZ       A2, ||$C$L6||         ; []  ; [ORIG 16-BIT INS]
    1711                            .dwpsn  file "../Application/CoP/NPI/npi_task.c",line 920,column 9,is_stmt,isa 1
    1712                            ; BRANCHCC OCCURS {||$C$L6||}    ; [] |920| 
    1713                    ;* --------------------------------------------------------------------------*
    1714 00000080 78A7              LDRB      V4, [V1, #2]          ; [DPU_V7M3_PIPE] |920|  ; [ORIG 16-BIT INS]
    1715 00000082 1E7F              SUBS      V4, V4, #1            ; [DPU_V7M3_PIPE] |920|  ; [ORIG 16-BIT INS]
    1716 00000084 D003              BEQ       ||$C$L5||             ; [DPU_V7M3_PIPE] |920|  ; [ORIG 16-BIT INS]
    1717                            ; BRANCHCC OCCURS {||$C$L5||}    ; [] |920| 
    1718                    ;* --------------------------------------------------------------------------*
    1719 00000086 1E7F              SUBS      V4, V4, #1            ; [DPU_V7M3_PIPE] |920|  ; [ORIG 16-BIT INS]
    1720 00000088 D103              BNE       ||$C$L6||             ; [DPU_V7M3_PIPE] |920|  ; [ORIG 16-BIT INS]
    1721                            ; BRANCHCC OCCURS {||$C$L6||}    ; [] |920| 
    1722                    ;* --------------------------------------------------------------------------*
    1723                            .dwpsn  file "../Application/CoP/NPI/npi_task.c",line 927,column 17,is_stmt,isa 1
    1724 0000008a 4650              MOV       A1, V7                ; [DPU_V7M3_PIPE] |927|  ; [ORIG 16-BIT INS]
    1725                            .dwpsn  file "../Application/CoP/NPI/npi_task.c",line 928,column 17,is_stmt,isa 1
    1726 0000008c E028              B         ||$C$L9||             ; [DPU_V7M3_PIPE] |928|  ; [ORIG 16-BIT INS]
    1727                            ; BRANCH OCCURS {||$C$L9||}      ; [] |928| 
    1728                    ;* --------------------------------------------------------------------------*
    1729 0000008e           ||$C$L5||:    
    1730                            .dwpsn  file "../Application/CoP/NPI/npi_task.c",line 933,column 17,is_stmt,isa 1
    1731 0000008e 4650              MOV       A1, V7                ; [DPU_V7M3_PIPE] |933|  ; [ORIG 16-BIT INS]
    1732                    $C$DW$155       .dwtag  DW_TAG_TI_branch
    1733                            .dwattr $C$DW$155, DW_AT_low_pc(0x00)
    1734                            .dwattr $C$DW$155, DW_AT_TI_call
    1735                            .dwattr $C$DW$155, DW_AT_TI_indirect
    1736                    
    1737 00000090 4788              BLX       A2                    ; [DPU_V7M3_PIPE] |933|  ; [ORIG 16-BIT INS]
    1738                            ; CALL OCCURS {}                 ; [] |933| 
    1739                    ;* --------------------------------------------------------------------------*
    1740 00000092           ||$C$L6||:    
    1741                            .dwpsn  file "../Application/CoP/NPI/npi_task.c",line 939,column 5,is_stmt,isa 1
    1742 00000092 4650              MOV       A1, V7                ; [DPU_V7M3_PIPE] |939|  ; [ORIG 16-BIT INS]
    1743                    $C$DW$156       .dwtag  DW_TAG_TI_branch
    1744                            .dwattr $C$DW$156, DW_AT_low_pc(0x00)
    1745                            .dwattr $C$DW$156, DW_AT_name("NPIFrame_frameMsg")
    1746                            .dwattr $C$DW$156, DW_AT_TI_call
    1747                    
    1748 00000094 FFFEF7FF!         BL        NPIFrame_frameMsg     ; [DPU_V7M3_PIPE] |939|  ; [KEEP 32-BIT INS]
    1749                            ; CALL OCCURS {NPIFrame_frameMsg }  ; [] |939| 
    1750                            .dwpsn  file "../Application/CoP/NPI/npi_task.c",line 940,column 5,is_stmt,isa 1
    1751 00000098 1C07              MOVS      V4, A1                ; [DPU_V7M3_PIPE] |940|  ; [ORIG 16-BIT INS]
    1752 0000009a D026              BEQ       ||$C$L11||            ; [DPU_V7M3_PIPE] |940|  ; [ORIG 16-BIT INS]
    1753                            ; BRANCHCC OCCURS {||$C$L11||}   ; [] |940| 
    1754                    ;* --------------------------------------------------------------------------*
    1755                            .dwpsn  file "../Application/CoP/NPI/npi_task.c",line 944,column 9,is_stmt,isa 1
    1756 0000009c 200C              MOVS      A1, #12               ; [DPU_V7M3_PIPE] |944|  ; [ORIG 16-BIT INS]
    1757                    $C$DW$157       .dwtag  DW_TAG_TI_branch
    1758                            .dwattr $C$DW$157, DW_AT_low_pc(0x00)
    1759                            .dwattr $C$DW$157, DW_AT_name("ICall_malloc")
    1760                            .dwattr $C$DW$157, DW_AT_TI_call
TI ARM Assembler PC v18.1.3 Wed Dec 12 17:41:42 2018

Tools Copyright (c) 1996-2017 Texas Instruments Incorporated
C:\Users\THE_WO~1\AppData\Local\Temp\{EDB6CCF9-DACC-43B8-95CB-11108A63F946} PAGE   33

    1761                    
    1762 0000009e FFFEF7FF!         BL        ICall_malloc          ; [DPU_V7M3_PIPE] |944|  ; [KEEP 32-BIT INS]
    1763                            ; CALL OCCURS {ICall_malloc }    ; [] |944| 
    1764                            .dwpsn  file "../Application/CoP/NPI/npi_task.c",line 945,column 9,is_stmt,isa 1
    1765 000000a2 0A00EA5F          MOVS      V7, A1                ; [DPU_V7M3_PIPE] |945|  ; [KEEP 32-BIT INS]
    1766 000000a6 D01D              BEQ       ||$C$L10||            ; [DPU_V7M3_PIPE] |945|  ; [ORIG 16-BIT INS]
    1767                            ; BRANCHCC OCCURS {||$C$L10||}   ; [] |945| 
    1768                    ;* --------------------------------------------------------------------------*
    1769                            .dwpsn  file "../Application/CoP/NPI/npi_task.c",line 951,column 13,is_stmt,isa 1
    1770 000000a8 0000F8D9          LDR       A1, [V6, #0]          ; [DPU_V7M3_PIPE] |951|  ; [KEEP 32-BIT INS]
    1771                    $C$DW$158       .dwtag  DW_TAG_TI_branch
    1772                            .dwattr $C$DW$158, DW_AT_low_pc(0x00)
    1773                            .dwattr $C$DW$158, DW_AT_TI_call
    1774                            .dwattr $C$DW$158, DW_AT_TI_indirect
    1775                    
    1776 000000ac 4780              BLX       A1                    ; [DPU_V7M3_PIPE] |951|  ; [ORIG 16-BIT INS]
    1777                            ; CALL OCCURS {}                 ; [] |951| 
    1778                            .dwpsn  file "../Application/CoP/NPI/npi_task.c",line 953,column 13,is_stmt,isa 1
    1779 000000ae 7008F8CA          STR       V4, [V7, #8]          ; [DPU_V7M3_PIPE] |953|  ; [KEEP 32-BIT INS]
    1780                            .dwpsn  file "../Application/CoP/NPI/npi_task.c",line 955,column 13,is_stmt,isa 1
    1781 000000b2 783B              LDRB      A4, [V4, #0]          ; [DPU_V7M3_PIPE] |955|  ; [ORIG 16-BIT INS]
    1782                            .dwpsn  file "../Application/CoP/NPI/npi_task.c",line 951,column 13,is_stmt,isa 1
    1783 000000b4 9004              STR       A1, [SP, #16]         ; [DPU_V7M3_PIPE] |951|  ; [ORIG 16-BIT INS]
    1784 000000b6 B95B              CBNZ      A4, ||$C$L7||         ; []  ; [ORIG 16-BIT INS]
    1785                            .dwpsn  file "../Application/CoP/NPI/npi_task.c",line 955,column 13,is_stmt,isa 1
    1786                            ; BRANCHCC OCCURS {||$C$L7||}    ; [] |955| 
    1787                    ;* --------------------------------------------------------------------------*
    1788                            .dwpsn  file "../Application/CoP/NPI/npi_task.c",line 973,column 21,is_stmt,isa 1
    1789 000000b8 6920              LDR       A1, [V1, #16]         ; [DPU_V7M3_PIPE] |973|  ; [ORIG 16-BIT INS]
    1790 000000ba 4651              MOV       A2, V7                ; [DPU_V7M3_PIPE] |973|  ; [ORIG 16-BIT INS]
    1791                    $C$DW$159       .dwtag  DW_TAG_TI_branch
    1792                            .dwattr $C$DW$159, DW_AT_low_pc(0x00)
    1793                            .dwattr $C$DW$159, DW_AT_name("ti_sysbios_knl_Queue_enqueue__E")
    1794                            .dwattr $C$DW$159, DW_AT_TI_call
    1795                    
    1796 000000bc FFFEF7FF!         BL        ti_sysbios_knl_Queue_enqueue__E ; [DPU_V7M3_PIPE] |973|  ; [KEEP 32-BIT INS]
    1797                            ; CALL OCCURS {ti_sysbios_knl_Queue_enqueue__E }  ; [] |973| 
    1798                            .dwpsn  file "../Application/CoP/NPI/npi_task.c",line 977,column 21,is_stmt,isa 1
    1799 000000c0 88A0              LDRH      A1, [V1, #4]          ; [DPU_V7M3_PIPE] |977|  ; [ORIG 16-BIT INS]
    1800 000000c2 0010F040          ORR       A1, A1, #16           ; [DPU_V7M3_PIPE] |977|  ; [KEEP 32-BIT INS]
    1801 000000c6 80A0              STRH      A1, [V1, #4]          ; [DPU_V7M3_PIPE] |977|  ; [ORIG 16-BIT INS]
    1802                            .dwpsn  file "../Application/CoP/NPI/npi_task.c",line 978,column 21,is_stmt,isa 1
    1803 000000c8 69E0              LDR       A1, [V1, #28]         ; [DPU_V7M3_PIPE] |978|  ; [ORIG 16-BIT INS]
    1804                    $C$DW$160       .dwtag  DW_TAG_TI_branch
    1805                            .dwattr $C$DW$160, DW_AT_low_pc(0x00)
    1806                            .dwattr $C$DW$160, DW_AT_name("ti_sysbios_knl_Semaphore_post__E")
    1807                            .dwattr $C$DW$160, DW_AT_TI_call
    1808                    
    1809 000000ca FFFEF7FF!         BL        ti_sysbios_knl_Semaphore_post__E ; [DPU_V7M3_PIPE] |978|  ; [KEEP 32-BIT INS]
    1810                            ; CALL OCCURS {ti_sysbios_knl_Semaphore_post__E }  ; [] |978| 
    1811                            .dwpsn  file "../Application/CoP/NPI/npi_task.c",line 980,column 21,is_stmt,isa 1
    1812 000000ce E005              B         ||$C$L8||             ; [DPU_V7M3_PIPE] |980|  ; [ORIG 16-BIT INS]
    1813                            ; BRANCH OCCURS {||$C$L8||}      ; [] |980| 
    1814                    ;* --------------------------------------------------------------------------*
    1815 000000d0           ||$C$L7||:    
TI ARM Assembler PC v18.1.3 Wed Dec 12 17:41:42 2018

Tools Copyright (c) 1996-2017 Texas Instruments Incorporated
C:\Users\THE_WO~1\AppData\Local\Temp\{EDB6CCF9-DACC-43B8-95CB-11108A63F946} PAGE   34

    1816                            .dwpsn  file "../Application/CoP/NPI/npi_task.c",line 985,column 18,is_stmt,isa 1
    1817 000000d0 4650              MOV       A1, V7                ; [DPU_V7M3_PIPE] |985|  ; [ORIG 16-BIT INS]
    1818                    $C$DW$161       .dwtag  DW_TAG_TI_branch
    1819                            .dwattr $C$DW$161, DW_AT_low_pc(0x00)
    1820                            .dwattr $C$DW$161, DW_AT_name("ICall_free")
    1821                            .dwattr $C$DW$161, DW_AT_TI_call
    1822                    
    1823 000000d2 FFFEF7FF!         BL        ICall_free            ; [DPU_V7M3_PIPE] |985|  ; [KEEP 32-BIT INS]
    1824                            ; CALL OCCURS {ICall_free }      ; [] |985| 
    1825                            .dwpsn  file "../Application/CoP/NPI/npi_task.c",line 986,column 18,is_stmt,isa 1
    1826 000000d6 4638              MOV       A1, V4                ; [DPU_V7M3_PIPE] |986|  ; [ORIG 16-BIT INS]
    1827                    $C$DW$162       .dwtag  DW_TAG_TI_branch
    1828                            .dwattr $C$DW$162, DW_AT_low_pc(0x00)
    1829                            .dwattr $C$DW$162, DW_AT_name("ICall_free")
    1830                            .dwattr $C$DW$162, DW_AT_TI_call
    1831                    
    1832 000000d8 FFFEF7FF!         BL        ICall_free            ; [DPU_V7M3_PIPE] |986|  ; [KEEP 32-BIT INS]
    1833                            ; CALL OCCURS {ICall_free }      ; [] |986| 
    1834                    ;* --------------------------------------------------------------------------*
    1835 000000dc           ||$C$L8||:    
    1836 000000dc 9804              LDR       A1, [SP, #16]         ; [DPU_V7M3_PIPE]  ; [ORIG 16-BIT INS]
    1837                            .dwpsn  file "../Application/CoP/NPI/npi_task.c",line 991,column 13,is_stmt,isa 1
    1838 000000de 6829              LDR       A2, [V2, #0]          ; [DPU_V7M3_PIPE] |991|  ; [ORIG 16-BIT INS]
    1839                    ;* --------------------------------------------------------------------------*
    1840                    ||$C$L9||:    
    1841                    $C$DW$163       .dwtag  DW_TAG_TI_branch
    1842                            .dwattr $C$DW$163, DW_AT_low_pc(0x00)
    1843                            .dwattr $C$DW$163, DW_AT_TI_call
    1844                            .dwattr $C$DW$163, DW_AT_TI_indirect
    1845                    
    1846 000000e0 4788              BLX       A2                    ; [DPU_V7M3_PIPE] |991|  ; [ORIG 16-BIT INS]
    1847                            ; CALL OCCURS {}                 ; [] |991| 
    1848                            .dwpsn  file "../Application/CoP/NPI/npi_task.c",line 992,column 9,is_stmt,isa 1
    1849 000000e2 E002              B         ||$C$L11||            ; [DPU_V7M3_PIPE] |992|  ; [ORIG 16-BIT INS]
    1850                            ; BRANCH OCCURS {||$C$L11||}     ; [] |992| 
    1851                    ;* --------------------------------------------------------------------------*
    1852 000000e4           ||$C$L10||:    
    1853                            .dwpsn  file "../Application/CoP/NPI/npi_task.c",line 996,column 10,is_stmt,isa 1
    1854 000000e4 4638              MOV       A1, V4                ; [DPU_V7M3_PIPE] |996|  ; [ORIG 16-BIT INS]
    1855                    $C$DW$164       .dwtag  DW_TAG_TI_branch
    1856                            .dwattr $C$DW$164, DW_AT_low_pc(0x00)
    1857                            .dwattr $C$DW$164, DW_AT_name("ICall_free")
    1858                            .dwattr $C$DW$164, DW_AT_TI_call
    1859                    
    1860 000000e6 FFFEF7FF!         BL        ICall_free            ; [DPU_V7M3_PIPE] |996|  ; [KEEP 32-BIT INS]
    1861                            ; CALL OCCURS {ICall_free }      ; [] |996| 
    1862                    ;* --------------------------------------------------------------------------*
    1863 000000ea           ||$C$L11||:    
    1864                            .dwpsn  file "../Application/CoP/NPI/npi_task.c",line 549,column 13,is_stmt,isa 1
    1865 000000ea 88A0              LDRH      A1, [V1, #4]          ; [DPU_V7M3_PIPE] |549|  ; [ORIG 16-BIT INS]
    1866 000000ec 0941              LSRS      A2, A1, #5            ; [DPU_V7M3_PIPE] |549|  ; [ORIG 16-BIT INS]
    1867 000000ee D32D              BCC       ||$C$L15||            ; [DPU_V7M3_PIPE] |549|  ; [ORIG 16-BIT INS]
    1868                            ; BRANCHCC OCCURS {||$C$L15||}   ; [] |549| 
    1869                    ;* --------------------------------------------------------------------------*
    1870                            .dwpsn  file "../Application/CoP/NPI/npi_task.c",line 560,column 21,is_stmt,isa 1
TI ARM Assembler PC v18.1.3 Wed Dec 12 17:41:42 2018

Tools Copyright (c) 1996-2017 Texas Instruments Incorporated
C:\Users\THE_WO~1\AppData\Local\Temp\{EDB6CCF9-DACC-43B8-95CB-11108A63F946} PAGE   35

    1871 000000f0 6920              LDR       A1, [V1, #16]         ; [DPU_V7M3_PIPE] |560|  ; [ORIG 16-BIT INS]
    1872                    $C$DW$165       .dwtag  DW_TAG_TI_branch
    1873                            .dwattr $C$DW$165, DW_AT_low_pc(0x00)
    1874                            .dwattr $C$DW$165, DW_AT_name("ti_sysbios_knl_Queue_empty__E")
    1875                            .dwattr $C$DW$165, DW_AT_TI_call
    1876                    
    1877 000000f2 FFFEF7FF!         BL        ti_sysbios_knl_Queue_empty__E ; [DPU_V7M3_PIPE] |560|  ; [KEEP 32-BIT INS]
    1878                            ; CALL OCCURS {ti_sysbios_knl_Queue_empty__E }  ; [] |560| 
    1879 000000f6 B9E0              CBNZ      A1, ||$C$L13||        ; []  ; [ORIG 16-BIT INS]
    1880                            ; BRANCHCC OCCURS {||$C$L13||}   ; [] |560| 
    1881                    ;* --------------------------------------------------------------------------*
    1882                    $C$DW$166       .dwtag  DW_TAG_TI_branch
    1883                            .dwattr $C$DW$166, DW_AT_low_pc(0x00)
    1884                            .dwattr $C$DW$166, DW_AT_name("NPITL_checkNpiBusy")
    1885                            .dwattr $C$DW$166, DW_AT_TI_call
    1886                    
    1887 000000f8 FFFEF7FF!         BL        NPITL_checkNpiBusy    ; [DPU_V7M3_PIPE] |560|  ; [KEEP 32-BIT INS]
    1888                            ; CALL OCCURS {NPITL_checkNpiBusy }  ; [] |560| 
    1889 000000fc B9C8              CBNZ      A1, ||$C$L13||        ; []  ; [ORIG 16-BIT INS]
    1890                            ; BRANCHCC OCCURS {||$C$L13||}   ; [] |560| 
    1891                    ;* --------------------------------------------------------------------------*
    1892                            .dwpsn  file "../Application/CoP/NPI/npi_task.c",line 1015,column 5,is_stmt,isa 1
    1893 000000fe 0000F8D9          LDR       A1, [V6, #0]          ; [DPU_V7M3_PIPE] |1015|  ; [KEEP 32-BIT INS]
    1894                    $C$DW$167       .dwtag  DW_TAG_TI_branch
    1895                            .dwattr $C$DW$167, DW_AT_low_pc(0x00)
    1896                            .dwattr $C$DW$167, DW_AT_TI_call
    1897                            .dwattr $C$DW$167, DW_AT_TI_indirect
    1898                    
    1899 00000102 4780              BLX       A1                    ; [DPU_V7M3_PIPE] |1015|  ; [ORIG 16-BIT INS]
    1900                            ; CALL OCCURS {}                 ; [] |1015| 
    1901 00000104 4682              MOV       V7, A1                ; [DPU_V7M3_PIPE] |1015|  ; [ORIG 16-BIT INS]
    1902                            .dwpsn  file "../Application/CoP/NPI/npi_task.c",line 1017,column 5,is_stmt,isa 1
    1903 00000106 6920              LDR       A1, [V1, #16]         ; [DPU_V7M3_PIPE] |1017|  ; [ORIG 16-BIT INS]
    1904                    $C$DW$168       .dwtag  DW_TAG_TI_branch
    1905                            .dwattr $C$DW$168, DW_AT_low_pc(0x00)
    1906                            .dwattr $C$DW$168, DW_AT_name("ti_sysbios_knl_Queue_dequeue__E")
    1907                            .dwattr $C$DW$168, DW_AT_TI_call
    1908                    
    1909 00000108 FFFEF7FF!         BL        ti_sysbios_knl_Queue_dequeue__E ; [DPU_V7M3_PIPE] |1017|  ; [KEEP 32-BIT INS]
    1910                            ; CALL OCCURS {ti_sysbios_knl_Queue_dequeue__E }  ; [] |1017| 
    1911                            .dwpsn  file "../Application/CoP/NPI/npi_task.c",line 1019,column 5,is_stmt,isa 1
    1912 0000010c 1C07              MOVS      V4, A1                ; [DPU_V7M3_PIPE] |1019|  ; [ORIG 16-BIT INS]
    1913 0000010e D00D              BEQ       ||$C$L12||            ; [DPU_V7M3_PIPE] |1019|  ; [ORIG 16-BIT INS]
    1914                            ; BRANCHCC OCCURS {||$C$L12||}   ; [] |1019| 
    1915                    ;* --------------------------------------------------------------------------*
    1916                            .dwpsn  file "../Application/CoP/NPI/npi_task.c",line 1021,column 9,is_stmt,isa 1
    1917 00000110 68B8              LDR       A1, [V4, #8]          ; [DPU_V7M3_PIPE] |1021|  ; [ORIG 16-BIT INS]
    1918 00000112 6840              LDR       A1, [A1, #4]          ; [DPU_V7M3_PIPE] |1021|  ; [ORIG 16-BIT INS]
    1919 00000114 61A0              STR       A1, [V1, #24]         ; [DPU_V7M3_PIPE] |1021|  ; [ORIG 16-BIT INS]
    1920                            .dwpsn  file "../Application/CoP/NPI/npi_task.c",line 1023,column 9,is_stmt,isa 1
    1921 00000116 68B9              LDR       A2, [V4, #8]          ; [DPU_V7M3_PIPE] |1023|  ; [ORIG 16-BIT INS]
    1922 00000118 6848              LDR       A1, [A2, #4]          ; [DPU_V7M3_PIPE] |1023|  ; [ORIG 16-BIT INS]
    1923 0000011a 8849              LDRH      A2, [A2, #2]          ; [DPU_V7M3_PIPE] |1023|  ; [ORIG 16-BIT INS]
    1924                    $C$DW$169       .dwtag  DW_TAG_TI_branch
    1925                            .dwattr $C$DW$169, DW_AT_low_pc(0x00)
TI ARM Assembler PC v18.1.3 Wed Dec 12 17:41:42 2018

Tools Copyright (c) 1996-2017 Texas Instruments Incorporated
C:\Users\THE_WO~1\AppData\Local\Temp\{EDB6CCF9-DACC-43B8-95CB-11108A63F946} PAGE   36

    1926                            .dwattr $C$DW$169, DW_AT_name("NPITL_writeTL")
    1927                            .dwattr $C$DW$169, DW_AT_TI_call
    1928                    
    1929 0000011c FFFEF7FF!         BL        NPITL_writeTL         ; [DPU_V7M3_PIPE] |1023|  ; [KEEP 32-BIT INS]
    1930                            ; CALL OCCURS {NPITL_writeTL }   ; [] |1023| 
    1931                            .dwpsn  file "../Application/CoP/NPI/npi_task.c",line 1026,column 9,is_stmt,isa 1
    1932 00000120 68B8              LDR       A1, [V4, #8]          ; [DPU_V7M3_PIPE] |1026|  ; [ORIG 16-BIT INS]
    1933                    $C$DW$170       .dwtag  DW_TAG_TI_branch
    1934                            .dwattr $C$DW$170, DW_AT_low_pc(0x00)
    1935                            .dwattr $C$DW$170, DW_AT_name("ICall_free")
    1936                            .dwattr $C$DW$170, DW_AT_TI_call
    1937                    
    1938 00000122 FFFEF7FF!         BL        ICall_free            ; [DPU_V7M3_PIPE] |1026|  ; [KEEP 32-BIT INS]
    1939                            ; CALL OCCURS {ICall_free }      ; [] |1026| 
    1940                            .dwpsn  file "../Application/CoP/NPI/npi_task.c",line 1027,column 9,is_stmt,isa 1
    1941 00000126 4638              MOV       A1, V4                ; [DPU_V7M3_PIPE] |1027|  ; [ORIG 16-BIT INS]
    1942                    $C$DW$171       .dwtag  DW_TAG_TI_branch
    1943                            .dwattr $C$DW$171, DW_AT_low_pc(0x00)
    1944                            .dwattr $C$DW$171, DW_AT_name("ICall_free")
    1945                            .dwattr $C$DW$171, DW_AT_TI_call
    1946                    
    1947 00000128 FFFEF7FF!         BL        ICall_free            ; [DPU_V7M3_PIPE] |1027|  ; [KEEP 32-BIT INS]
    1948                            ; CALL OCCURS {ICall_free }      ; [] |1027| 
    1949                    ;* --------------------------------------------------------------------------*
    1950 0000012c           ||$C$L12||:    
    1951                            .dwpsn  file "../Application/CoP/NPI/npi_task.c",line 1030,column 5,is_stmt,isa 1
    1952 0000012c 6829              LDR       A2, [V2, #0]          ; [DPU_V7M3_PIPE] |1030|  ; [ORIG 16-BIT INS]
    1953 0000012e 4650              MOV       A1, V7                ; [DPU_V7M3_PIPE] |1030|  ; [ORIG 16-BIT INS]
    1954                    $C$DW$172       .dwtag  DW_TAG_TI_branch
    1955                            .dwattr $C$DW$172, DW_AT_low_pc(0x00)
    1956                            .dwattr $C$DW$172, DW_AT_TI_call
    1957                            .dwattr $C$DW$172, DW_AT_TI_indirect
    1958                    
    1959 00000130 4788              BLX       A2                    ; [DPU_V7M3_PIPE] |1030|  ; [ORIG 16-BIT INS]
    1960                            ; CALL OCCURS {}                 ; [] |1030| 
    1961                    ;* --------------------------------------------------------------------------*
    1962 00000132           ||$C$L13||:    
    1963                            .dwpsn  file "../Application/CoP/NPI/npi_task.c",line 569,column 17,is_stmt,isa 1
    1964 00000132 6920              LDR       A1, [V1, #16]         ; [DPU_V7M3_PIPE] |569|  ; [ORIG 16-BIT INS]
    1965                    $C$DW$173       .dwtag  DW_TAG_TI_branch
    1966                            .dwattr $C$DW$173, DW_AT_low_pc(0x00)
    1967                            .dwattr $C$DW$173, DW_AT_name("ti_sysbios_knl_Queue_empty__E")
    1968                            .dwattr $C$DW$173, DW_AT_TI_call
    1969                    
    1970 00000134 FFFEF7FF!         BL        ti_sysbios_knl_Queue_empty__E ; [DPU_V7M3_PIPE] |569|  ; [KEEP 32-BIT INS]
    1971                            ; CALL OCCURS {ti_sysbios_knl_Queue_empty__E }  ; [] |569| 
    1972 00000138 B920              CBNZ      A1, ||$C$L14||        ; []  ; [ORIG 16-BIT INS]
    1973                            ; BRANCHCC OCCURS {||$C$L14||}   ; [] |569| 
    1974                    ;* --------------------------------------------------------------------------*
    1975                            .dwpsn  file "../Application/CoP/NPI/npi_task.c",line 583,column 21,is_stmt,isa 1
    1976 0000013a 69E0              LDR       A1, [V1, #28]         ; [DPU_V7M3_PIPE] |583|  ; [ORIG 16-BIT INS]
    1977                    $C$DW$174       .dwtag  DW_TAG_TI_branch
    1978                            .dwattr $C$DW$174, DW_AT_low_pc(0x00)
    1979                            .dwattr $C$DW$174, DW_AT_name("ti_sysbios_knl_Semaphore_post__E")
    1980                            .dwattr $C$DW$174, DW_AT_TI_call
TI ARM Assembler PC v18.1.3 Wed Dec 12 17:41:42 2018

Tools Copyright (c) 1996-2017 Texas Instruments Incorporated
C:\Users\THE_WO~1\AppData\Local\Temp\{EDB6CCF9-DACC-43B8-95CB-11108A63F946} PAGE   37

    1981                    
    1982 0000013c FFFEF7FF!         BL        ti_sysbios_knl_Semaphore_post__E ; [DPU_V7M3_PIPE] |583|  ; [KEEP 32-BIT INS]
    1983                            ; CALL OCCURS {ti_sysbios_knl_Semaphore_post__E }  ; [] |583| 
    1984 00000140 88A0              LDRH      A1, [V1, #4]          ; [DPU_V7M3_PIPE] |583|  ; [ORIG 16-BIT INS]
    1985 00000142 E003              B         ||$C$L15||            ; [DPU_V7M3_PIPE] |583|  ; [ORIG 16-BIT INS]
    1986                            ; BRANCH OCCURS {||$C$L15||}     ; [] |583| 
    1987                    ;* --------------------------------------------------------------------------*
    1988 00000144           ||$C$L14||:    
    1989                            .dwpsn  file "../Application/CoP/NPI/npi_task.c",line 573,column 21,is_stmt,isa 1
    1990 00000144 88A0              LDRH      A1, [V1, #4]          ; [DPU_V7M3_PIPE] |573|  ; [ORIG 16-BIT INS]
    1991 00000146 0010F020          BIC       A1, A1, #16           ; [DPU_V7M3_PIPE] |573|  ; [KEEP 32-BIT INS]
    1992 0000014a 80A0              STRH      A1, [V1, #4]          ; [DPU_V7M3_PIPE] |573|  ; [ORIG 16-BIT INS]
    1993                    ;* --------------------------------------------------------------------------*
    1994 0000014c           ||$C$L15||:    
    1995                            .dwpsn  file "../Application/CoP/NPI/npi_task.c",line 590,column 13,is_stmt,isa 1
    1996 0000014c 0881              LSRS      A2, A1, #2            ; [DPU_V7M3_PIPE] |590|  ; [ORIG 16-BIT INS]
    1997 0000014e D30D              BCC       ||$C$L17||            ; [DPU_V7M3_PIPE] |590|  ; [ORIG 16-BIT INS]
    1998                            ; BRANCHCC OCCURS {||$C$L17||}   ; [] |590| 
    1999                    ;* --------------------------------------------------------------------------*
    2000                            .dwpsn  file "../Application/CoP/NPI/npi_task.c",line 597,column 17,is_stmt,isa 1
    2001                    $C$DW$175       .dwtag  DW_TAG_TI_branch
    2002                            .dwattr $C$DW$175, DW_AT_low_pc(0x00)
    2003                            .dwattr $C$DW$175, DW_AT_name("NPIFrame_collectFrameData")
    2004                            .dwattr $C$DW$175, DW_AT_TI_call
    2005                    
    2006 00000150 FFFEF7FF!         BL        NPIFrame_collectFrameData ; [DPU_V7M3_PIPE] |597|  ; [KEEP 32-BIT INS]
    2007                            ; CALL OCCURS {NPIFrame_collectFrameData }  ; [] |597| 
    2008                            .dwpsn  file "../Application/CoP/NPI/npi_task.c",line 599,column 17,is_stmt,isa 1
    2009                    $C$DW$176       .dwtag  DW_TAG_TI_branch
    2010                            .dwattr $C$DW$176, DW_AT_low_pc(0x00)
    2011                            .dwattr $C$DW$176, DW_AT_name("NPIRxBuf_GetRxBufCount")
    2012                            .dwattr $C$DW$176, DW_AT_TI_call
    2013                    
    2014 00000154 FFFEF7FF!         BL        NPIRxBuf_GetRxBufCount ; [DPU_V7M3_PIPE] |599|  ; [KEEP 32-BIT INS]
    2015                            ; CALL OCCURS {NPIRxBuf_GetRxBufCount }  ; [] |599| 
    2016 00000158 B920              CBNZ      A1, ||$C$L16||        ; []  ; [ORIG 16-BIT INS]
    2017                            ; BRANCHCC OCCURS {||$C$L16||}   ; [] |599| 
    2018                    ;* --------------------------------------------------------------------------*
    2019                            .dwpsn  file "../Application/CoP/NPI/npi_task.c",line 603,column 21,is_stmt,isa 1
    2020 0000015a 88A0              LDRH      A1, [V1, #4]          ; [DPU_V7M3_PIPE] |603|  ; [ORIG 16-BIT INS]
    2021 0000015c 0002F020          BIC       A1, A1, #2            ; [DPU_V7M3_PIPE] |603|  ; [KEEP 32-BIT INS]
    2022 00000160 80A0              STRH      A1, [V1, #4]          ; [DPU_V7M3_PIPE] |603|  ; [ORIG 16-BIT INS]
    2023                            .dwpsn  file "../Application/CoP/NPI/npi_task.c",line 605,column 17,is_stmt,isa 1
    2024 00000162 E003              B         ||$C$L17||            ; [DPU_V7M3_PIPE] |605|  ; [ORIG 16-BIT INS]
    2025                            ; BRANCH OCCURS {||$C$L17||}     ; [] |605| 
    2026                    ;* --------------------------------------------------------------------------*
    2027 00000164           ||$C$L16||:    
    2028                            .dwpsn  file "../Application/CoP/NPI/npi_task.c",line 613,column 21,is_stmt,isa 1
    2029 00000164 69E0              LDR       A1, [V1, #28]         ; [DPU_V7M3_PIPE] |613|  ; [ORIG 16-BIT INS]
    2030                    $C$DW$177       .dwtag  DW_TAG_TI_branch
    2031                            .dwattr $C$DW$177, DW_AT_low_pc(0x00)
    2032                            .dwattr $C$DW$177, DW_AT_name("ti_sysbios_knl_Semaphore_post__E")
    2033                            .dwattr $C$DW$177, DW_AT_TI_call
    2034                    
    2035 00000166 FFFEF7FF!         BL        ti_sysbios_knl_Semaphore_post__E ; [DPU_V7M3_PIPE] |613|  ; [KEEP 32-BIT INS]
TI ARM Assembler PC v18.1.3 Wed Dec 12 17:41:42 2018

Tools Copyright (c) 1996-2017 Texas Instruments Incorporated
C:\Users\THE_WO~1\AppData\Local\Temp\{EDB6CCF9-DACC-43B8-95CB-11108A63F946} PAGE   38

    2036                            ; CALL OCCURS {ti_sysbios_knl_Semaphore_post__E }  ; [] |613| 
    2037 0000016a 88A0              LDRH      A1, [V1, #4]          ; [DPU_V7M3_PIPE] |613|  ; [ORIG 16-BIT INS]
    2038                    ;* --------------------------------------------------------------------------*
    2039 0000016c           ||$C$L17||:    
    2040                            .dwpsn  file "../Application/CoP/NPI/npi_task.c",line 619,column 13,is_stmt,isa 1
    2041 0000016c 0901              LSRS      A2, A1, #4            ; [DPU_V7M3_PIPE] |619|  ; [ORIG 16-BIT INS]
    2042 0000016e D327              BCC       ||$C$L24||            ; [DPU_V7M3_PIPE] |619|  ; [ORIG 16-BIT INS]
    2043                            ; BRANCHCC OCCURS {||$C$L24||}   ; [] |619| 
    2044                    ;* --------------------------------------------------------------------------*
    2045                            .dwpsn  file "../Application/CoP/NPI/npi_task.c",line 1087,column 5,is_stmt,isa 1
    2046 00000170 6960              LDR       A1, [V1, #20]         ; [DPU_V7M3_PIPE] |1087|  ; [ORIG 16-BIT INS]
    2047                    $C$DW$178       .dwtag  DW_TAG_TI_branch
    2048                            .dwattr $C$DW$178, DW_AT_low_pc(0x00)
    2049                            .dwattr $C$DW$178, DW_AT_name("ti_sysbios_knl_Queue_dequeue__E")
    2050                            .dwattr $C$DW$178, DW_AT_TI_call
    2051                    
    2052 00000172 FFFEF7FF!         BL        ti_sysbios_knl_Queue_dequeue__E ; [DPU_V7M3_PIPE] |1087|  ; [KEEP 32-BIT INS]
    2053                            ; CALL OCCURS {ti_sysbios_knl_Queue_dequeue__E }  ; [] |1087| 
    2054                            .dwpsn  file "../Application/CoP/NPI/npi_task.c",line 1089,column 5,is_stmt,isa 1
    2055 00000176 1C07              MOVS      V4, A1                ; [DPU_V7M3_PIPE] |1089|  ; [ORIG 16-BIT INS]
    2056 00000178 D015              BEQ       ||$C$L22||            ; [DPU_V7M3_PIPE] |1089|  ; [ORIG 16-BIT INS]
    2057                            ; BRANCHCC OCCURS {||$C$L22||}   ; [] |1089| 
    2058                    ;* --------------------------------------------------------------------------*
    2059                            .dwpsn  file "../Application/CoP/NPI/npi_task.c",line 1093,column 13,is_stmt,isa 1
    2060 0000017a 6A21              LDR       A2, [V1, #32]         ; [DPU_V7M3_PIPE] |1093|  ; [ORIG 16-BIT INS]
    2061 0000017c B169              CBZ       A2, ||$C$L20||        ; []  ; [ORIG 16-BIT INS]
    2062                            ; BRANCHCC OCCURS {||$C$L20||}   ; [] |1093| 
    2063                    ;* --------------------------------------------------------------------------*
    2064 0000017e 7860              LDRB      A1, [V1, #1]          ; [DPU_V7M3_PIPE] |1093|  ; [ORIG 16-BIT INS]
    2065 00000180 B158              CBZ       A1, ||$C$L20||        ; []  ; [ORIG 16-BIT INS]
    2066                            ; BRANCHCC OCCURS {||$C$L20||}   ; [] |1093| 
    2067                    ;* --------------------------------------------------------------------------*
    2068 00000182 1E40              SUBS      A1, A1, #1            ; [DPU_V7M3_PIPE] |1093|  ; [ORIG 16-BIT INS]
    2069 00000184 D002              BEQ       ||$C$L18||            ; [DPU_V7M3_PIPE] |1093|  ; [ORIG 16-BIT INS]
    2070                            ; BRANCHCC OCCURS {||$C$L18||}   ; [] |1093| 
    2071                    ;* --------------------------------------------------------------------------*
    2072 00000186 1E40              SUBS      A1, A1, #1            ; [DPU_V7M3_PIPE] |1093|  ; [ORIG 16-BIT INS]
    2073 00000188 D10A              BNE       ||$C$L21||            ; [DPU_V7M3_PIPE] |1093|  ; [ORIG 16-BIT INS]
    2074                            ; BRANCHCC OCCURS {||$C$L21||}   ; [] |1093| 
    2075                    ;* --------------------------------------------------------------------------*
    2076                            .dwpsn  file "../Application/CoP/NPI/npi_task.c",line 1108,column 21,is_stmt,isa 1
    2077 0000018a E003              B         ||$C$L19||            ; [DPU_V7M3_PIPE] |1108|  ; [ORIG 16-BIT INS]
    2078                            ; BRANCH OCCURS {||$C$L19||}     ; [] |1108| 
    2079                    ;* --------------------------------------------------------------------------*
    2080 0000018c           ||$C$L18||:    
    2081                            .dwpsn  file "../Application/CoP/NPI/npi_task.c",line 1098,column 21,is_stmt,isa 1
    2082 0000018c 68B8              LDR       A1, [V4, #8]          ; [DPU_V7M3_PIPE] |1098|  ; [ORIG 16-BIT INS]
    2083                    $C$DW$179       .dwtag  DW_TAG_TI_branch
    2084                            .dwattr $C$DW$179, DW_AT_low_pc(0x00)
    2085                            .dwattr $C$DW$179, DW_AT_name("NPITask_sendBufToStack")
    2086                            .dwattr $C$DW$179, DW_AT_TI_call
    2087                    
    2088 0000018e FFFEF7FF!         BL        NPITask_sendBufToStack ; [DPU_V7M3_PIPE] |1098|  ; [KEEP 32-BIT INS]
    2089                            ; CALL OCCURS {NPITask_sendBufToStack }  ; [] |1098| 
    2090                            .dwpsn  file "../Application/CoP/NPI/npi_task.c",line 1099,column 21,is_stmt,isa 1
TI ARM Assembler PC v18.1.3 Wed Dec 12 17:41:42 2018

Tools Copyright (c) 1996-2017 Texas Instruments Incorporated
C:\Users\THE_WO~1\AppData\Local\Temp\{EDB6CCF9-DACC-43B8-95CB-11108A63F946} PAGE   39

    2091 00000192 6A21              LDR       A2, [V1, #32]         ; [DPU_V7M3_PIPE] |1099|  ; [ORIG 16-BIT INS]
    2092                    ;* --------------------------------------------------------------------------*
    2093 00000194           ||$C$L19||:    
    2094 00000194 68B8              LDR       A1, [V4, #8]          ; [DPU_V7M3_PIPE] |1099|  ; [ORIG 16-BIT INS]
    2095                    $C$DW$180       .dwtag  DW_TAG_TI_branch
    2096                            .dwattr $C$DW$180, DW_AT_low_pc(0x00)
    2097                            .dwattr $C$DW$180, DW_AT_TI_call
    2098                            .dwattr $C$DW$180, DW_AT_TI_indirect
    2099                    
    2100 00000196 4788              BLX       A2                    ; [DPU_V7M3_PIPE] |1099|  ; [ORIG 16-BIT INS]
    2101                            ; CALL OCCURS {}                 ; [] |1099| 
    2102                            .dwpsn  file "../Application/CoP/NPI/npi_task.c",line 1100,column 21,is_stmt,isa 1
    2103 00000198 E002              B         ||$C$L21||            ; [DPU_V7M3_PIPE] |1100|  ; [ORIG 16-BIT INS]
    2104                            ; BRANCH OCCURS {||$C$L21||}     ; [] |1100| 
    2105                    ;* --------------------------------------------------------------------------*
    2106 0000019a           ||$C$L20||:    
    2107                            .dwpsn  file "../Application/CoP/NPI/npi_task.c",line 1121,column 13,is_stmt,isa 1
    2108 0000019a 68B8              LDR       A1, [V4, #8]          ; [DPU_V7M3_PIPE] |1121|  ; [ORIG 16-BIT INS]
    2109                    $C$DW$181       .dwtag  DW_TAG_TI_branch
    2110                            .dwattr $C$DW$181, DW_AT_low_pc(0x00)
    2111                            .dwattr $C$DW$181, DW_AT_name("NPITask_sendBufToStack")
    2112                            .dwattr $C$DW$181, DW_AT_TI_call
    2113                    
    2114 0000019c FFFEF7FF!         BL        NPITask_sendBufToStack ; [DPU_V7M3_PIPE] |1121|  ; [KEEP 32-BIT INS]
    2115                            ; CALL OCCURS {NPITask_sendBufToStack }  ; [] |1121| 
    2116                    ;* --------------------------------------------------------------------------*
    2117 000001a0           ||$C$L21||:    
    2118                            .dwpsn  file "../Application/CoP/NPI/npi_task.c",line 1125,column 9,is_stmt,isa 1
    2119 000001a0 4638              MOV       A1, V4                ; [DPU_V7M3_PIPE] |1125|  ; [ORIG 16-BIT INS]
    2120                    $C$DW$182       .dwtag  DW_TAG_TI_branch
    2121                            .dwattr $C$DW$182, DW_AT_low_pc(0x00)
    2122                            .dwattr $C$DW$182, DW_AT_name("ICall_free")
    2123                            .dwattr $C$DW$182, DW_AT_TI_call
    2124                    
    2125 000001a2 FFFEF7FF!         BL        ICall_free            ; [DPU_V7M3_PIPE] |1125|  ; [KEEP 32-BIT INS]
    2126                            ; CALL OCCURS {ICall_free }      ; [] |1125| 
    2127                    ;* --------------------------------------------------------------------------*
    2128 000001a6           ||$C$L22||:    
    2129                            .dwpsn  file "../Application/CoP/NPI/npi_task.c",line 630,column 21,is_stmt,isa 1
    2130 000001a6 6960              LDR       A1, [V1, #20]         ; [DPU_V7M3_PIPE] |630|  ; [ORIG 16-BIT INS]
    2131                    $C$DW$183       .dwtag  DW_TAG_TI_branch
    2132                            .dwattr $C$DW$183, DW_AT_low_pc(0x00)
    2133                            .dwattr $C$DW$183, DW_AT_name("ti_sysbios_knl_Queue_empty__E")
    2134                            .dwattr $C$DW$183, DW_AT_TI_call
    2135                    
    2136 000001a8 FFFEF7FF!         BL        ti_sysbios_knl_Queue_empty__E ; [DPU_V7M3_PIPE] |630|  ; [KEEP 32-BIT INS]
    2137                            ; CALL OCCURS {ti_sysbios_knl_Queue_empty__E }  ; [] |630| 
    2138 000001ac B920              CBNZ      A1, ||$C$L23||        ; []  ; [ORIG 16-BIT INS]
    2139                            ; BRANCHCC OCCURS {||$C$L23||}   ; [] |630| 
    2140                    ;* --------------------------------------------------------------------------*
    2141                            .dwpsn  file "../Application/CoP/NPI/npi_task.c",line 644,column 25,is_stmt,isa 1
    2142 000001ae 69E0              LDR       A1, [V1, #28]         ; [DPU_V7M3_PIPE] |644|  ; [ORIG 16-BIT INS]
    2143                    $C$DW$184       .dwtag  DW_TAG_TI_branch
    2144                            .dwattr $C$DW$184, DW_AT_low_pc(0x00)
    2145                            .dwattr $C$DW$184, DW_AT_name("ti_sysbios_knl_Semaphore_post__E")
TI ARM Assembler PC v18.1.3 Wed Dec 12 17:41:42 2018

Tools Copyright (c) 1996-2017 Texas Instruments Incorporated
C:\Users\THE_WO~1\AppData\Local\Temp\{EDB6CCF9-DACC-43B8-95CB-11108A63F946} PAGE   40

    2146                            .dwattr $C$DW$184, DW_AT_TI_call
    2147                    
    2148 000001b0 FFFEF7FF!         BL        ti_sysbios_knl_Semaphore_post__E ; [DPU_V7M3_PIPE] |644|  ; [KEEP 32-BIT INS]
    2149                            ; CALL OCCURS {ti_sysbios_knl_Semaphore_post__E }  ; [] |644| 
    2150 000001b4 88A0              LDRH      A1, [V1, #4]          ; [DPU_V7M3_PIPE] |644|  ; [ORIG 16-BIT INS]
    2151 000001b6 E003              B         ||$C$L24||            ; [DPU_V7M3_PIPE] |644|  ; [ORIG 16-BIT INS]
    2152                            ; BRANCH OCCURS {||$C$L24||}     ; [] |644| 
    2153                    ;* --------------------------------------------------------------------------*
    2154 000001b8           ||$C$L23||:    
    2155                            .dwpsn  file "../Application/CoP/NPI/npi_task.c",line 634,column 25,is_stmt,isa 1
    2156 000001b8 88A0              LDRH      A1, [V1, #4]          ; [DPU_V7M3_PIPE] |634|  ; [ORIG 16-BIT INS]
    2157 000001ba 0008F020          BIC       A1, A1, #8            ; [DPU_V7M3_PIPE] |634|  ; [KEEP 32-BIT INS]
    2158 000001be 80A0              STRH      A1, [V1, #4]          ; [DPU_V7M3_PIPE] |634|  ; [ORIG 16-BIT INS]
    2159                    ;* --------------------------------------------------------------------------*
    2160 000001c0           ||$C$L24||:    
    2161                            .dwpsn  file "../Application/CoP/NPI/npi_task.c",line 662,column 13,is_stmt,isa 1
    2162 000001c0 08C1              LSRS      A2, A1, #3            ; [DPU_V7M3_PIPE] |662|  ; [ORIG 16-BIT INS]
    2163 000001c2 AFFEF4FF!         BCC       ||$C$L4||             ; [DPU_V7M3_PIPE] |662|  ; [KEEP 32-BIT INS]
    2164                            ; BRANCHCC OCCURS {||$C$L4||}    ; [] |662| 
    2165                    ;* --------------------------------------------------------------------------*
    2166                            .dwpsn  file "../Application/CoP/NPI/npi_task.c",line 665,column 17,is_stmt,isa 1
    2167 000001c6 0004F020          BIC       A1, A1, #4            ; [DPU_V7M3_PIPE] |665|  ; [KEEP 32-BIT INS]
    2168 000001ca 80A0              STRH      A1, [V1, #4]          ; [DPU_V7M3_PIPE] |665|  ; [ORIG 16-BIT INS]
    2169                            .dwpsn  file "../Application/CoP/NPI/npi_task.c",line 683,column 21,is_stmt,isa 1
    2170 000001cc 6920              LDR       A1, [V1, #16]         ; [DPU_V7M3_PIPE] |683|  ; [ORIG 16-BIT INS]
    2171                    $C$DW$185       .dwtag  DW_TAG_TI_branch
    2172                            .dwattr $C$DW$185, DW_AT_low_pc(0x00)
    2173                            .dwattr $C$DW$185, DW_AT_name("ti_sysbios_knl_Queue_empty__E")
    2174                            .dwattr $C$DW$185, DW_AT_TI_call
    2175                    
    2176 000001ce FFFEF7FF!         BL        ti_sysbios_knl_Queue_empty__E ; [DPU_V7M3_PIPE] |683|  ; [KEEP 32-BIT INS]
    2177                            ; CALL OCCURS {ti_sysbios_knl_Queue_empty__E }  ; [] |683| 
    2178 000001d2 2800              CMP       A1, #0                ; [DPU_V7M3_PIPE] |683|  ; [ORIG 16-BIT INS]
    2179 000001d4 AFFEF47F!         BNE       ||$C$L4||             ; [DPU_V7M3_PIPE] |683|  ; [KEEP 32-BIT INS]
    2180                            ; BRANCHCC OCCURS {||$C$L4||}    ; [] |683| 
    2181                    ;* --------------------------------------------------------------------------*
    2182                            .dwpsn  file "../Application/CoP/NPI/npi_task.c",line 691,column 25,is_stmt,isa 1
    2183 000001d8 88A0              LDRH      A1, [V1, #4]          ; [DPU_V7M3_PIPE] |691|  ; [ORIG 16-BIT INS]
    2184 000001da 0010F040          ORR       A1, A1, #16           ; [DPU_V7M3_PIPE] |691|  ; [KEEP 32-BIT INS]
    2185 000001de 80A0              STRH      A1, [V1, #4]          ; [DPU_V7M3_PIPE] |691|  ; [ORIG 16-BIT INS]
    2186                            .dwpsn  file "../Application/CoP/NPI/npi_task.c",line 692,column 25,is_stmt,isa 1
    2187 000001e0 69E0              LDR       A1, [V1, #28]         ; [DPU_V7M3_PIPE] |692|  ; [ORIG 16-BIT INS]
    2188                    $C$DW$186       .dwtag  DW_TAG_TI_branch
    2189                            .dwattr $C$DW$186, DW_AT_low_pc(0x00)
    2190                            .dwattr $C$DW$186, DW_AT_name("ti_sysbios_knl_Semaphore_post__E")
    2191                            .dwattr $C$DW$186, DW_AT_TI_call
    2192                    
    2193 000001e2 FFFEF7FF!         BL        ti_sysbios_knl_Semaphore_post__E ; [DPU_V7M3_PIPE] |692|  ; [KEEP 32-BIT INS]
    2194                            ; CALL OCCURS {ti_sysbios_knl_Semaphore_post__E }  ; [] |692| 
    2195 000001e6 E718              B         ||$C$L4||             ; [DPU_V7M3_PIPE] |692|  ; [ORIG 16-BIT INS]
    2196                            ; BRANCH OCCURS {||$C$L4||}      ; [] |692| 
    2197                            .dwattr $C$DW$140, DW_AT_TI_end_file("../Application/CoP/NPI/npi_task.c")
    2198                            .dwattr $C$DW$140, DW_AT_TI_end_line(0x2bd)
    2199                            .dwattr $C$DW$140, DW_AT_TI_end_column(0x01)
    2200                            .dwendentry
TI ARM Assembler PC v18.1.3 Wed Dec 12 17:41:42 2018

Tools Copyright (c) 1996-2017 Texas Instruments Incorporated
C:\Users\THE_WO~1\AppData\Local\Temp\{EDB6CCF9-DACC-43B8-95CB-11108A63F946} PAGE   41

    2201                            .dwendtag $C$DW$140
    2202                    
    2203 00000000                   .sect   ".text:NPITask_task"
    2204                            .clink
    2205                            .thumbfunc NPITask_task
    2206 00000000                   .thumb
    2207                            .global NPITask_task
    2208                    
    2209                    $C$DW$187       .dwtag  DW_TAG_subprogram
    2210                            .dwattr $C$DW$187, DW_AT_name("NPITask_task")
    2211                            .dwattr $C$DW$187, DW_AT_low_pc(NPITask_task)
    2212                            .dwattr $C$DW$187, DW_AT_high_pc(0x00)
    2213                            .dwattr $C$DW$187, DW_AT_TI_symbol_name("NPITask_task")
    2214                            .dwattr $C$DW$187, DW_AT_external
    2215                            .dwattr $C$DW$187, DW_AT_TI_begin_file("../Application/CoP/NPI/npi_task.c")
    2216                            .dwattr $C$DW$187, DW_AT_TI_begin_line(0x2c4)
    2217                            .dwattr $C$DW$187, DW_AT_TI_begin_column(0x06)
    2218                            .dwattr $C$DW$187, DW_AT_decl_file("../Application/CoP/NPI/npi_task.c")
    2219                            .dwattr $C$DW$187, DW_AT_decl_line(0x2c4)
    2220                            .dwattr $C$DW$187, DW_AT_decl_column(0x06)
    2221                            .dwattr $C$DW$187, DW_AT_TI_max_frame_size(0x10)
    2222                            .dwpsn  file "../Application/CoP/NPI/npi_task.c",line 709,column 1,is_stmt,address NPITask_tas
    2223                    
    2224                            .dwfde $C$DW$CIE, NPITask_task
    2225                    
    2226                    ;*****************************************************************************
    2227                    ;* FUNCTION NAME: NPITask_task                                               *
    2228                    ;*                                                                           *
    2229                    ;*   Regs Modified     : A1,A2,A3,A4,V1,V2,V9,SP,LR,SR                       *
    2230                    ;*   Regs Used         : A1,A2,A3,A4,V1,V2,V9,SP,LR,SR                       *
    2231                    ;*   Local Frame Size  : 0 Args + 0 Auto + 12 Save = 12 byte                 *
    2232                    ;*****************************************************************************
    2233 00000000           NPITask_task:
    2234                    ;* --------------------------------------------------------------------------*
    2235                    ;* V2    assigned to $O$C1
    2236                            .dwcfi  cfa_offset, 0
    2237                    ;***    ; the preceding call never returns
    2238 00000000 B538              PUSH      {A4, V1, V2, LR}      ; [DPU_V7M3_PIPE]  ; [ORIG 16-BIT INS]
    2239                            .dwcfi  cfa_offset, 16
    2240                            .dwcfi  save_reg_to_mem, 14, -4
    2241                            .dwcfi  save_reg_to_mem, 5, -8
    2242                            .dwcfi  save_reg_to_mem, 4, -12
    2243                            .dwcfi  save_reg_to_mem, 3, -16
    2244                            .dwpsn  file "../Application/CoP/NPI/npi_task.c",line 350,column 5,is_stmt,isa 1
    2245 00000002 4D0D              LDR       V2, $C$CON23          ; [DPU_V7M3_PIPE] |350|  ; [ORIG 16-BIT INS]
    2246 00000004 2400              MOVS      V1, #0                ; [DPU_V7M3_PIPE] |350|  ; [ORIG 16-BIT INS]
    2247                            .dwpsn  file "../Application/CoP/NPI/npi_task.c",line 353,column 5,is_stmt,isa 1
    2248 00000006 4620              MOV       A1, V1                ; [DPU_V7M3_PIPE] |353|  ; [ORIG 16-BIT INS]
    2249                            .dwpsn  file "../Application/CoP/NPI/npi_task.c",line 350,column 5,is_stmt,isa 1
    2250 00000008 80AC              STRH      V1, [V2, #4]          ; [DPU_V7M3_PIPE] |350|  ; [ORIG 16-BIT INS]
    2251                            .dwpsn  file "../Application/CoP/NPI/npi_task.c",line 353,column 5,is_stmt,isa 1
    2252 0000000a 4601              MOV       A2, A1                ; [DPU_V7M3_PIPE] |353|  ; [ORIG 16-BIT INS]
    2253 0000000c 61AC              STR       V1, [V2, #24]         ; [DPU_V7M3_PIPE] |353|  ; [ORIG 16-BIT INS]
    2254                            .dwpsn  file "../Application/CoP/NPI/npi_task.c",line 356,column 5,is_stmt,isa 1
    2255                    $C$DW$188       .dwtag  DW_TAG_TI_branch
TI ARM Assembler PC v18.1.3 Wed Dec 12 17:41:42 2018

Tools Copyright (c) 1996-2017 Texas Instruments Incorporated
C:\Users\THE_WO~1\AppData\Local\Temp\{EDB6CCF9-DACC-43B8-95CB-11108A63F946} PAGE   42

    2256                            .dwattr $C$DW$188, DW_AT_low_pc(0x00)
    2257                            .dwattr $C$DW$188, DW_AT_name("ti_sysbios_knl_Queue_create")
    2258                            .dwattr $C$DW$188, DW_AT_TI_call
    2259                    
    2260 0000000e FFFEF7FF!         BL        ti_sysbios_knl_Queue_create ; [DPU_V7M3_PIPE] |356|  ; [KEEP 32-BIT INS]
    2261                            ; CALL OCCURS {ti_sysbios_knl_Queue_create }  ; [] |356| 
    2262 00000012 6128              STR       A1, [V2, #16]         ; [DPU_V7M3_PIPE] |356|  ; [ORIG 16-BIT INS]
    2263 00000014 4620              MOV       A1, V1                ; [DPU_V7M3_PIPE] |356|  ; [ORIG 16-BIT INS]
    2264 00000016 4601              MOV       A2, A1                ; [DPU_V7M3_PIPE] |356|  ; [ORIG 16-BIT INS]
    2265                            .dwpsn  file "../Application/CoP/NPI/npi_task.c",line 358,column 5,is_stmt,isa 1
    2266                    $C$DW$189       .dwtag  DW_TAG_TI_branch
    2267                            .dwattr $C$DW$189, DW_AT_low_pc(0x00)
    2268                            .dwattr $C$DW$189, DW_AT_name("ti_sysbios_knl_Queue_create")
    2269                            .dwattr $C$DW$189, DW_AT_TI_call
    2270                    
    2271 00000018 FFFEF7FF!         BL        ti_sysbios_knl_Queue_create ; [DPU_V7M3_PIPE] |358|  ; [KEEP 32-BIT INS]
    2272                            ; CALL OCCURS {ti_sysbios_knl_Queue_create }  ; [] |358| 
    2273 0000001c 6168              STR       A1, [V2, #20]         ; [DPU_V7M3_PIPE] |358|  ; [ORIG 16-BIT INS]
    2274                            .dwpsn  file "../Application/CoP/NPI/npi_task.c",line 395,column 5,is_stmt,isa 1
    2275                    $C$DW$190       .dwtag  DW_TAG_TI_branch
    2276                            .dwattr $C$DW$190, DW_AT_low_pc(0x00)
    2277                            .dwattr $C$DW$190, DW_AT_name("ICall_enrollService")
    2278                            .dwattr $C$DW$190, DW_AT_TI_call
    2279                    
    2280 0000001e FFFEF7FF!         BL        ICall_enrollService   ; [DPU_V7M3_PIPE] |395|  ; [KEEP 32-BIT INS]
    2281                            ; CALL OCCURS {ICall_enrollService }  ; [] |395| 
    2282                            .dwpsn  file "../Application/CoP/NPI/npi_task.c",line 405,column 5,is_stmt,isa 1
    2283 00000022 4806              LDR       A1, $C$CON24          ; [DPU_V7M3_PIPE] |405|  ; [ORIG 16-BIT INS]
    2284                    $C$DW$191       .dwtag  DW_TAG_TI_branch
    2285                            .dwattr $C$DW$191, DW_AT_low_pc(0x00)
    2286                            .dwattr $C$DW$191, DW_AT_name("NPIFrame_initialize")
    2287                            .dwattr $C$DW$191, DW_AT_TI_call
    2288                    
    2289 00000024 FFFEF7FF!         BL        NPIFrame_initialize   ; [DPU_V7M3_PIPE] |405|  ; [KEEP 32-BIT INS]
    2290                            ; CALL OCCURS {NPIFrame_initialize }  ; [] |405| 
    2291                            .dwpsn  file "../Application/CoP/NPI/npi_task.c",line 408,column 5,is_stmt,isa 1
    2292 00000028 4805              LDR       A1, $C$CON25          ; [DPU_V7M3_PIPE] |408|  ; [ORIG 16-BIT INS]
    2293 0000002a 4906              LDR       A2, $C$CON26          ; [DPU_V7M3_PIPE] |408|  ; [ORIG 16-BIT INS]
    2294 0000002c 4A06              LDR       A3, $C$CON27          ; [DPU_V7M3_PIPE] |408|  ; [ORIG 16-BIT INS]
    2295                    $C$DW$192       .dwtag  DW_TAG_TI_branch
    2296                            .dwattr $C$DW$192, DW_AT_low_pc(0x00)
    2297                            .dwattr $C$DW$192, DW_AT_name("NPITL_initTL")
    2298                            .dwattr $C$DW$192, DW_AT_TI_call
    2299                    
    2300 0000002e FFFEF7FF!         BL        NPITL_initTL          ; [DPU_V7M3_PIPE] |408|  ; [KEEP 32-BIT INS]
    2301                            ; CALL OCCURS {NPITL_initTL }    ; [] |408| 
    2302                            .dwpsn  file "../Application/CoP/NPI/npi_task.c",line 714,column 5,is_stmt,isa 1
    2303                    $C$DW$193       .dwtag  DW_TAG_TI_branch
    2304                            .dwattr $C$DW$193, DW_AT_low_pc(0x00)
    2305                            .dwattr $C$DW$193, DW_AT_name("NPITask_process")
    2306                            .dwattr $C$DW$193, DW_AT_TI_call
    2307                    
    2308 00000032 FFFEF7FF!         BL        NPITask_process       ; [DPU_V7M3_PIPE] |714|  ; [KEEP 32-BIT INS]
    2309                            ; CALL OCCURS {NPITask_process }  ; [] |714| 
    2310                    $C$DW$194       .dwtag  DW_TAG_TI_branch
TI ARM Assembler PC v18.1.3 Wed Dec 12 17:41:42 2018

Tools Copyright (c) 1996-2017 Texas Instruments Incorporated
C:\Users\THE_WO~1\AppData\Local\Temp\{EDB6CCF9-DACC-43B8-95CB-11108A63F946} PAGE   43

    2311                            .dwattr $C$DW$194, DW_AT_low_pc(0x00)
    2312                            .dwattr $C$DW$194, DW_AT_TI_return
    2313                    
    2314 00000036 BD38              POP       {A4, V1, V2, PC}      ; [DPU_V7M3_PIPE]  ; [ORIG 16-BIT INS]
    2315                            .dwcfi  cfa_offset, 0
    2316                            .dwcfi  restore_reg, 5
    2317                            .dwcfi  restore_reg, 4
    2318                            .dwcfi  restore_reg, 3
    2319                            ; BRANCH OCCURS                  ; [] 
    2320                            .dwattr $C$DW$187, DW_AT_TI_end_file("../Application/CoP/NPI/npi_task.c")
    2321                            .dwattr $C$DW$187, DW_AT_TI_end_line(0x2cb)
    2322                            .dwattr $C$DW$187, DW_AT_TI_end_column(0x01)
    2323                            .dwendentry
    2324                            .dwendtag $C$DW$187
    2325                    
    2326 00000000                   .sect   ".text:NPITask_Fxn"
    2327                            .clink
    2328                            .thumbfunc NPITask_Fxn
    2329 00000000                   .thumb
    2330                            .global NPITask_Fxn
    2331                    
    2332                    $C$DW$195       .dwtag  DW_TAG_subprogram
    2333                            .dwattr $C$DW$195, DW_AT_name("NPITask_Fxn")
    2334                            .dwattr $C$DW$195, DW_AT_low_pc(NPITask_Fxn)
    2335                            .dwattr $C$DW$195, DW_AT_high_pc(0x00)
    2336                            .dwattr $C$DW$195, DW_AT_TI_symbol_name("NPITask_Fxn")
    2337                            .dwattr $C$DW$195, DW_AT_external
    2338                            .dwattr $C$DW$195, DW_AT_TI_begin_file("../Application/CoP/NPI/npi_task.c")
    2339                            .dwattr $C$DW$195, DW_AT_TI_begin_line(0x2d7)
    2340                            .dwattr $C$DW$195, DW_AT_TI_begin_column(0x06)
    2341                            .dwattr $C$DW$195, DW_AT_decl_file("../Application/CoP/NPI/npi_task.c")
    2342                            .dwattr $C$DW$195, DW_AT_decl_line(0x2d7)
    2343                            .dwattr $C$DW$195, DW_AT_decl_column(0x06)
    2344                            .dwattr $C$DW$195, DW_AT_TI_max_frame_size(0x00)
    2345                            .dwpsn  file "../Application/CoP/NPI/npi_task.c",line 728,column 1,is_stmt,address NPITask_Fxn
    2346                    
    2347                            .dwfde $C$DW$CIE, NPITask_Fxn
    2348                    $C$DW$196       .dwtag  DW_TAG_formal_parameter
    2349                            .dwattr $C$DW$196, DW_AT_name("a0")
    2350                            .dwattr $C$DW$196, DW_AT_TI_symbol_name("a0")
    2351                            .dwattr $C$DW$196, DW_AT_type(*$C$DW$T$874)
    2352                            .dwattr $C$DW$196, DW_AT_location[DW_OP_reg0]
    2353                    
    2354                    $C$DW$197       .dwtag  DW_TAG_formal_parameter
    2355                            .dwattr $C$DW$197, DW_AT_name("a1")
    2356                            .dwattr $C$DW$197, DW_AT_TI_symbol_name("a1")
    2357                            .dwattr $C$DW$197, DW_AT_type(*$C$DW$T$874)
    2358                            .dwattr $C$DW$197, DW_AT_location[DW_OP_reg1]
    2359                    
    2360                    
    2361                    ;*****************************************************************************
    2362                    ;* FUNCTION NAME: NPITask_Fxn                                                *
    2363                    ;*                                                                           *
    2364                    ;*   Regs Modified     : A1,A2,A3,A4,V9,LR,SR                                *
    2365                    ;*   Regs Used         : A1,A2,A3,A4,V9,SP,LR,SR                             *
TI ARM Assembler PC v18.1.3 Wed Dec 12 17:41:42 2018

Tools Copyright (c) 1996-2017 Texas Instruments Incorporated
C:\Users\THE_WO~1\AppData\Local\Temp\{EDB6CCF9-DACC-43B8-95CB-11108A63F946} PAGE   44

    2366                    ;*   Local Frame Size  : 0 Args + 0 Auto + 0 Save = 0 byte                   *
    2367                    ;*****************************************************************************
    2368 00000000           NPITask_Fxn:
    2369                    ;* --------------------------------------------------------------------------*
    2370                            .dwcfi  cfa_offset, 0
    2371                    ;***    ; the preceding call never returns
    2372                            .dwpsn  file "../Application/CoP/NPI/npi_task.c",line 729,column 5,is_stmt,isa 1
    2373                    $C$DW$198       .dwtag  DW_TAG_TI_branch
    2374                            .dwattr $C$DW$198, DW_AT_low_pc(0x00)
    2375                            .dwattr $C$DW$198, DW_AT_name("NPITask_task")
    2376                            .dwattr $C$DW$198, DW_AT_TI_call
    2377                            .dwattr $C$DW$198, DW_AT_TI_return
    2378                    
    2379 00000000 BFFEF7FF!         CRET      NPITask_task          ; [DPU_V7M3_PIPE] |729|  ; [KEEP 32-BIT INS]
    2380                            ; CALL OCCURS {NPITask_task }    ; [] |729| 
    2381                            .dwattr $C$DW$195, DW_AT_TI_end_file("../Application/CoP/NPI/npi_task.c")
    2382                            .dwattr $C$DW$195, DW_AT_TI_end_line(0x2da)
    2383                            .dwattr $C$DW$195, DW_AT_TI_end_column(0x01)
    2384                            .dwendentry
    2385                            .dwendtag $C$DW$195
    2386                    
    2387 00000000                   .sect   ".text:ICall_freeMsg"
    2388                            .clink
    2389                            .thumbfunc ICall_freeMsg
    2390 00000000                   .thumb
    2391                    
    2392                    $C$DW$199       .dwtag  DW_TAG_subprogram
    2393                            .dwattr $C$DW$199, DW_AT_name("ICall_freeMsg")
    2394                            .dwattr $C$DW$199, DW_AT_low_pc(ICall_freeMsg)
    2395                            .dwattr $C$DW$199, DW_AT_high_pc(0x00)
    2396                            .dwattr $C$DW$199, DW_AT_TI_symbol_name("ICall_freeMsg")
    2397                            .dwattr $C$DW$199, DW_AT_TI_begin_file("C:/ti/simplelink_cc13x0_sdk_2_30_00_20/source/ti/ti154
    2398                            .dwattr $C$DW$199, DW_AT_TI_begin_line(0x70c)
    2399                            .dwattr $C$DW$199, DW_AT_TI_begin_column(0x0d)
    2400                            .dwattr $C$DW$199, DW_AT_decl_file("C:/ti/simplelink_cc13x0_sdk_2_30_00_20/source/ti/ti154stac
    2401                            .dwattr $C$DW$199, DW_AT_decl_line(0x70c)
    2402                            .dwattr $C$DW$199, DW_AT_decl_column(0x0d)
    2403                            .dwattr $C$DW$199, DW_AT_TI_max_frame_size(0x10)
    2404                            .dwpsn  file "C:/ti/simplelink_cc13x0_sdk_2_30_00_20/source/ti/ti154stack/icall/src/inc/icall.
    2405                    
    2406                            .dwfde $C$DW$CIE, ICall_freeMsg
    2407                    $C$DW$200       .dwtag  DW_TAG_formal_parameter
    2408                            .dwattr $C$DW$200, DW_AT_name("msg")
    2409                            .dwattr $C$DW$200, DW_AT_TI_symbol_name("msg")
    2410                            .dwattr $C$DW$200, DW_AT_type(*$C$DW$T$3)
    2411                            .dwattr $C$DW$200, DW_AT_location[DW_OP_reg0]
    2412                    
    2413                    
    2414                    ;*****************************************************************************
    2415                    ;* FUNCTION NAME: ICall_freeMsg                                              *
    2416                    ;*                                                                           *
    2417                    ;*   Regs Modified     : A1,A2,A3,A4,V9,SP,LR,SR                             *
    2418                    ;*   Regs Used         : A1,A2,A3,A4,V9,SP,LR,SR                             *
    2419                    ;*   Local Frame Size  : 0 Args + 8 Auto + 4 Save = 12 byte                  *
    2420                    ;*****************************************************************************
TI ARM Assembler PC v18.1.3 Wed Dec 12 17:41:42 2018

Tools Copyright (c) 1996-2017 Texas Instruments Incorporated
C:\Users\THE_WO~1\AppData\Local\Temp\{EDB6CCF9-DACC-43B8-95CB-11108A63F946} PAGE   45

    2421                    ICall_freeMsg:
    2422                    ;* --------------------------------------------------------------------------*
    2423                    $C$DW$201       .dwtag  DW_TAG_variable
    2424                            .dwattr $C$DW$201, DW_AT_name("args")
    2425                            .dwattr $C$DW$201, DW_AT_TI_symbol_name("args")
    2426                            .dwattr $C$DW$201, DW_AT_type(*$C$DW$T$1567)
    2427                            .dwattr $C$DW$201, DW_AT_location[DW_OP_breg13 0]
    2428                    
    2429                    ;* A1    assigned to msg
    2430                    $C$DW$202       .dwtag  DW_TAG_variable
    2431                            .dwattr $C$DW$202, DW_AT_name("msg")
    2432                            .dwattr $C$DW$202, DW_AT_TI_symbol_name("msg")
    2433                            .dwattr $C$DW$202, DW_AT_type(*$C$DW$T$724)
    2434                            .dwattr $C$DW$202, DW_AT_location[DW_OP_reg0]
    2435                    
    2436                            .dwcfi  cfa_offset, 0
    2437 00000000 B50E              PUSH      {A2, A3, A4, LR}      ; [DPU_V7M3_PIPE]  ; [ORIG 16-BIT INS]
    2438                            .dwcfi  cfa_offset, 16
    2439                            .dwcfi  save_reg_to_mem, 14, -4
    2440                            .dwcfi  save_reg_to_mem, 3, -8
    2441                            .dwcfi  save_reg_to_mem, 2, -12
    2442                            .dwcfi  save_reg_to_mem, 1, -16
    2443                            .dwpsn  file "C:/ti/simplelink_cc13x0_sdk_2_30_00_20/source/ti/ti154stack/icall/src/inc/icall.
    2444 00000002 2108              MOVS      A2, #8                ; [DPU_V7M3_PIPE] |1807|  ; [ORIG 16-BIT INS]
    2445                            .dwpsn  file "C:/ti/simplelink_cc13x0_sdk_2_30_00_20/source/ti/ti154stack/icall/src/inc/icall.
    2446 00000004 9001              STR       A1, [SP, #4]          ; [DPU_V7M3_PIPE] |1809|  ; [ORIG 16-BIT INS]
    2447                            .dwpsn  file "C:/ti/simplelink_cc13x0_sdk_2_30_00_20/source/ti/ti154stack/icall/src/inc/icall.
    2448 00000006 4805              LDR       A1, $C$CON28          ; [DPU_V7M3_PIPE] |1810|  ; [ORIG 16-BIT INS]
    2449                            .dwpsn  file "C:/ti/simplelink_cc13x0_sdk_2_30_00_20/source/ti/ti154stack/icall/src/inc/icall.
    2450 00000008 1000F8AD          STRH      A2, [SP, #0]          ; [DPU_V7M3_PIPE] |1807|  ; [KEEP 32-BIT INS]
    2451                            .dwpsn  file "C:/ti/simplelink_cc13x0_sdk_2_30_00_20/source/ti/ti154stack/icall/src/inc/icall.
    2452 0000000c 2103              MOVS      A2, #3                ; [DPU_V7M3_PIPE] |1808|  ; [ORIG 16-BIT INS]
    2453 0000000e 1002F8AD          STRH      A2, [SP, #2]          ; [DPU_V7M3_PIPE] |1808|  ; [KEEP 32-BIT INS]
    2454                            .dwpsn  file "C:/ti/simplelink_cc13x0_sdk_2_30_00_20/source/ti/ti154stack/icall/src/inc/icall.
    2455 00000012 6801              LDR       A2, [A1, #0]          ; [DPU_V7M3_PIPE] |1810|  ; [ORIG 16-BIT INS]
    2456 00000014 4668              MOV       A1, SP                ; [DPU_V7M3_PIPE] |1810|  ; [ORIG 16-BIT INS]
    2457                    $C$DW$203       .dwtag  DW_TAG_TI_branch
    2458                            .dwattr $C$DW$203, DW_AT_low_pc(0x00)
    2459                            .dwattr $C$DW$203, DW_AT_TI_call
    2460                            .dwattr $C$DW$203, DW_AT_TI_indirect
    2461                    
    2462 00000016 4788              BLX       A2                    ; [DPU_V7M3_PIPE] |1810|  ; [ORIG 16-BIT INS]
    2463                            ; CALL OCCURS {}                 ; [] |1810| 
    2464                    $C$DW$204       .dwtag  DW_TAG_TI_branch
    2465                            .dwattr $C$DW$204, DW_AT_low_pc(0x00)
    2466                            .dwattr $C$DW$204, DW_AT_TI_return
    2467                    
    2468 00000018 BD0E              POP       {A2, A3, A4, PC}      ; [DPU_V7M3_PIPE]  ; [ORIG 16-BIT INS]
    2469                            .dwcfi  cfa_offset, 0
    2470                            .dwcfi  restore_reg, 3
    2471                            .dwcfi  restore_reg, 2
    2472                            .dwcfi  restore_reg, 1
    2473                            ; BRANCH OCCURS                  ; [] 
    2474                            .dwattr $C$DW$199, DW_AT_TI_end_file("C:/ti/simplelink_cc13x0_sdk_2_30_00_20/source/ti/ti154st
    2475                            .dwattr $C$DW$199, DW_AT_TI_end_line(0x713)
TI ARM Assembler PC v18.1.3 Wed Dec 12 17:41:42 2018

Tools Copyright (c) 1996-2017 Texas Instruments Incorporated
C:\Users\THE_WO~1\AppData\Local\Temp\{EDB6CCF9-DACC-43B8-95CB-11108A63F946} PAGE   46

    2476                            .dwattr $C$DW$199, DW_AT_TI_end_column(0x01)
    2477                            .dwendentry
    2478                            .dwendtag $C$DW$199
    2479                    
    2480 00000000                   .sect   ".text:NPITask_transportTxDoneCallBack"
    2481                            .clink
    2482                            .thumbfunc NPITask_transportTxDoneCallBack
    2483 00000000                   .thumb
    2484                    
    2485                    $C$DW$205       .dwtag  DW_TAG_subprogram
    2486                            .dwattr $C$DW$205, DW_AT_name("NPITask_transportTxDoneCallBack")
    2487                            .dwattr $C$DW$205, DW_AT_low_pc(NPITask_transportTxDoneCallBack)
    2488                            .dwattr $C$DW$205, DW_AT_high_pc(0x00)
    2489                            .dwattr $C$DW$205, DW_AT_TI_symbol_name("NPITask_transportTxDoneCallBack")
    2490                            .dwattr $C$DW$205, DW_AT_TI_begin_file("../Application/CoP/NPI/npi_task.c")
    2491                            .dwattr $C$DW$205, DW_AT_TI_begin_line(0x4b6)
    2492                            .dwattr $C$DW$205, DW_AT_TI_begin_column(0x0d)
    2493                            .dwattr $C$DW$205, DW_AT_decl_file("../Application/CoP/NPI/npi_task.c")
    2494                            .dwattr $C$DW$205, DW_AT_decl_line(0x4b6)
    2495                            .dwattr $C$DW$205, DW_AT_decl_column(0x0d)
    2496                            .dwattr $C$DW$205, DW_AT_TI_max_frame_size(0x08)
    2497                            .dwpsn  file "../Application/CoP/NPI/npi_task.c",line 1207,column 1,is_stmt,address NPITask_tr
    2498                    
    2499                            .dwfde $C$DW$CIE, NPITask_transportTxDoneCallBack
    2500                    $C$DW$206       .dwtag  DW_TAG_formal_parameter
    2501                            .dwattr $C$DW$206, DW_AT_name("size")
    2502                            .dwattr $C$DW$206, DW_AT_TI_symbol_name("size")
    2503                            .dwattr $C$DW$206, DW_AT_type(*$C$DW$T$10)
    2504                            .dwattr $C$DW$206, DW_AT_location[DW_OP_reg0]
    2505                    
    2506                    
    2507                    ;*****************************************************************************
    2508                    ;* FUNCTION NAME: NPITask_transportTxDoneCallBack                            *
    2509                    ;*                                                                           *
    2510                    ;*   Regs Modified     : A1,A2,A3,A4,V1,V9,SP,LR,SR                          *
    2511                    ;*   Regs Used         : A1,A2,A3,A4,V1,V9,SP,LR,SR                          *
    2512                    ;*   Local Frame Size  : 0 Args + 0 Auto + 8 Save = 8 byte                   *
    2513                    ;*****************************************************************************
    2514 00000000           NPITask_transportTxDoneCallBack:
    2515                    ;* --------------------------------------------------------------------------*
    2516                    ;* V1    assigned to $O$K2
    2517                            .dwcfi  cfa_offset, 0
    2518 00000000 B510              PUSH      {V1, LR}              ; [DPU_V7M3_PIPE]  ; [ORIG 16-BIT INS]
    2519                            .dwcfi  cfa_offset, 8
    2520                            .dwcfi  save_reg_to_mem, 14, -4
    2521                            .dwcfi  save_reg_to_mem, 4, -8
    2522                            .dwpsn  file "../Application/CoP/NPI/npi_task.c",line 1209,column 5,is_stmt,isa 1
    2523 00000002 4C07              LDR       V1, $C$CON30          ; [DPU_V7M3_PIPE] |1209|  ; [ORIG 16-BIT INS]
    2524 00000004 69A0              LDR       A1, [V1, #24]         ; [DPU_V7M3_PIPE] |1209|  ; [ORIG 16-BIT INS]
    2525 00000006 B120              CBZ       A1, ||$C$L25||        ; []  ; [ORIG 16-BIT INS]
    2526                            ; BRANCHCC OCCURS {||$C$L25||}   ; [] |1209| 
    2527                    ;* --------------------------------------------------------------------------*
    2528                            .dwpsn  file "../Application/CoP/NPI/npi_task.c",line 1212,column 9,is_stmt,isa 1
    2529 00000008 69A0              LDR       A1, [V1, #24]         ; [DPU_V7M3_PIPE] |1212|  ; [ORIG 16-BIT INS]
    2530                    $C$DW$207       .dwtag  DW_TAG_TI_branch
TI ARM Assembler PC v18.1.3 Wed Dec 12 17:41:42 2018

Tools Copyright (c) 1996-2017 Texas Instruments Incorporated
C:\Users\THE_WO~1\AppData\Local\Temp\{EDB6CCF9-DACC-43B8-95CB-11108A63F946} PAGE   47

    2531                            .dwattr $C$DW$207, DW_AT_low_pc(0x00)
    2532                            .dwattr $C$DW$207, DW_AT_name("ICall_freeMsg")
    2533                            .dwattr $C$DW$207, DW_AT_TI_call
    2534                    
    2535 0000000a FFFEF7FF!         BL        ICall_freeMsg         ; [DPU_V7M3_PIPE] |1212|  ; [KEEP 32-BIT INS]
    2536                            ; CALL OCCURS {ICall_freeMsg }   ; [] |1212| 
    2537                            .dwpsn  file "../Application/CoP/NPI/npi_task.c",line 1214,column 9,is_stmt,isa 1
    2538 0000000e 2000              MOVS      A1, #0                ; [DPU_V7M3_PIPE] |1214|  ; [ORIG 16-BIT INS]
    2539 00000010 61A0              STR       A1, [V1, #24]         ; [DPU_V7M3_PIPE] |1214|  ; [ORIG 16-BIT INS]
    2540                    ;* --------------------------------------------------------------------------*
    2541 00000012           ||$C$L25||:    
    2542                            .dwpsn  file "../Application/CoP/NPI/npi_task.c",line 1221,column 5,is_stmt,isa 1
    2543 00000012 2004              MOVS      A1, #4                ; [DPU_V7M3_PIPE] |1221|  ; [ORIG 16-BIT INS]
    2544 00000014 80E0              STRH      A1, [V1, #6]          ; [DPU_V7M3_PIPE] |1221|  ; [ORIG 16-BIT INS]
    2545                            .dwpsn  file "../Application/CoP/NPI/npi_task.c",line 1222,column 5,is_stmt,isa 1
    2546 00000016 69E0              LDR       A1, [V1, #28]         ; [DPU_V7M3_PIPE] |1222|  ; [ORIG 16-BIT INS]
    2547                    $C$DW$208       .dwtag  DW_TAG_TI_branch
    2548                            .dwattr $C$DW$208, DW_AT_low_pc(0x00)
    2549                            .dwattr $C$DW$208, DW_AT_name("ti_sysbios_knl_Semaphore_post__E")
    2550                            .dwattr $C$DW$208, DW_AT_TI_call
    2551                    
    2552 00000018 FFFEF7FF!         BL        ti_sysbios_knl_Semaphore_post__E ; [DPU_V7M3_PIPE] |1222|  ; [KEEP 32-BIT INS]
    2553                            ; CALL OCCURS {ti_sysbios_knl_Semaphore_post__E }  ; [] |1222| 
    2554                    $C$DW$209       .dwtag  DW_TAG_TI_branch
    2555                            .dwattr $C$DW$209, DW_AT_low_pc(0x00)
    2556                            .dwattr $C$DW$209, DW_AT_TI_return
    2557                    
    2558 0000001c BD10              POP       {V1, PC}              ; [DPU_V7M3_PIPE]  ; [ORIG 16-BIT INS]
    2559                            .dwcfi  cfa_offset, 0
    2560                            .dwcfi  restore_reg, 4
    2561                            ; BRANCH OCCURS                  ; [] 
    2562                            .dwattr $C$DW$205, DW_AT_TI_end_file("../Application/CoP/NPI/npi_task.c")
    2563                            .dwattr $C$DW$205, DW_AT_TI_end_line(0x4c8)
    2564                            .dwattr $C$DW$205, DW_AT_TI_end_column(0x01)
    2565                            .dwendentry
    2566                            .dwendtag $C$DW$205
    2567                    
    2568 00000000                   .sect   ".text:NPITask_sendToHost"
    2569                            .clink
    2570                            .thumbfunc NPITask_sendToHost
    2571 00000000                   .thumb
    2572                            .global NPITask_sendToHost
    2573                    
    2574                    $C$DW$210       .dwtag  DW_TAG_subprogram
    2575                            .dwattr $C$DW$210, DW_AT_name("NPITask_sendToHost")
    2576                            .dwattr $C$DW$210, DW_AT_low_pc(NPITask_sendToHost)
    2577                            .dwattr $C$DW$210, DW_AT_high_pc(0x00)
    2578                            .dwattr $C$DW$210, DW_AT_TI_symbol_name("NPITask_sendToHost")
    2579                            .dwattr $C$DW$210, DW_AT_external
    2580                            .dwattr $C$DW$210, DW_AT_TI_begin_file("../Application/CoP/NPI/npi_task.c")
    2581                            .dwattr $C$DW$210, DW_AT_TI_begin_line(0x31b)
    2582                            .dwattr $C$DW$210, DW_AT_TI_begin_column(0x06)
    2583                            .dwattr $C$DW$210, DW_AT_decl_file("../Application/CoP/NPI/npi_task.c")
    2584                            .dwattr $C$DW$210, DW_AT_decl_line(0x31b)
    2585                            .dwattr $C$DW$210, DW_AT_decl_column(0x06)
TI ARM Assembler PC v18.1.3 Wed Dec 12 17:41:42 2018

Tools Copyright (c) 1996-2017 Texas Instruments Incorporated
C:\Users\THE_WO~1\AppData\Local\Temp\{EDB6CCF9-DACC-43B8-95CB-11108A63F946} PAGE   48

    2586                            .dwattr $C$DW$210, DW_AT_TI_max_frame_size(0x18)
    2587                            .dwpsn  file "../Application/CoP/NPI/npi_task.c",line 796,column 1,is_stmt,address NPITask_sen
    2588                    
    2589                            .dwfde $C$DW$CIE, NPITask_sendToHost
    2590                    $C$DW$211       .dwtag  DW_TAG_formal_parameter
    2591                            .dwattr $C$DW$211, DW_AT_name("pMsg")
    2592                            .dwattr $C$DW$211, DW_AT_TI_symbol_name("pMsg")
    2593                            .dwattr $C$DW$211, DW_AT_type(*$C$DW$T$155)
    2594                            .dwattr $C$DW$211, DW_AT_location[DW_OP_reg0]
    2595                    
    2596                    
    2597                    ;*****************************************************************************
    2598                    ;* FUNCTION NAME: NPITask_sendToHost                                         *
    2599                    ;*                                                                           *
    2600                    ;*   Regs Modified     : A1,A2,A3,A4,V1,V2,V3,V4,V9,SP,LR,SR                 *
    2601                    ;*   Regs Used         : A1,A2,A3,A4,V1,V2,V3,V4,V9,SP,LR,SR                 *
    2602                    ;*   Local Frame Size  : 0 Args + 0 Auto + 20 Save = 20 byte                 *
    2603                    ;*****************************************************************************
    2604                    NPITask_sendToHost:
    2605                    ;* --------------------------------------------------------------------------*
    2606                    ;* V1    assigned to $O$C1
    2607                    ;* V2    assigned to key
    2608                    $C$DW$212       .dwtag  DW_TAG_variable
    2609                            .dwattr $C$DW$212, DW_AT_name("key")
    2610                            .dwattr $C$DW$212, DW_AT_TI_symbol_name("key")
    2611                            .dwattr $C$DW$212, DW_AT_type(*$C$DW$T$283)
    2612                            .dwattr $C$DW$212, DW_AT_location[DW_OP_reg5]
    2613                    
    2614                    ;* V4    assigned to recPtr
    2615                    $C$DW$213       .dwtag  DW_TAG_variable
    2616                            .dwattr $C$DW$213, DW_AT_name("recPtr")
    2617                            .dwattr $C$DW$213, DW_AT_TI_symbol_name("recPtr")
    2618                            .dwattr $C$DW$213, DW_AT_type(*$C$DW$T$712)
    2619                            .dwattr $C$DW$213, DW_AT_location[DW_OP_reg7]
    2620                    
    2621                    ;* V3    assigned to pNPIMsg
    2622                    $C$DW$214       .dwtag  DW_TAG_variable
    2623                            .dwattr $C$DW$214, DW_AT_name("pNPIMsg")
    2624                            .dwattr $C$DW$214, DW_AT_TI_symbol_name("pNPIMsg")
    2625                            .dwattr $C$DW$214, DW_AT_type(*$C$DW$T$218)
    2626                            .dwattr $C$DW$214, DW_AT_location[DW_OP_reg6]
    2627                    
    2628                            .dwcfi  cfa_offset, 0
    2629 00000000 B5F8              PUSH      {A4, V1, V2, V3, V4, LR} ; [DPU_V7M3_PIPE]  ; [ORIG 16-BIT INS]
    2630                            .dwcfi  cfa_offset, 24
    2631                            .dwcfi  save_reg_to_mem, 14, -4
    2632                            .dwcfi  save_reg_to_mem, 7, -8
    2633                            .dwcfi  save_reg_to_mem, 6, -12
    2634                            .dwcfi  save_reg_to_mem, 5, -16
    2635                            .dwcfi  save_reg_to_mem, 4, -20
    2636                            .dwcfi  save_reg_to_mem, 3, -24
    2637                            .dwpsn  file "../Application/CoP/NPI/npi_task.c",line 800,column 27,is_stmt,isa 1
    2638                    $C$DW$215       .dwtag  DW_TAG_TI_branch
    2639                            .dwattr $C$DW$215, DW_AT_low_pc(0x00)
    2640                            .dwattr $C$DW$215, DW_AT_name("NPIFrame_frameMsg")
TI ARM Assembler PC v18.1.3 Wed Dec 12 17:41:42 2018

Tools Copyright (c) 1996-2017 Texas Instruments Incorporated
C:\Users\THE_WO~1\AppData\Local\Temp\{EDB6CCF9-DACC-43B8-95CB-11108A63F946} PAGE   49

    2641                            .dwattr $C$DW$215, DW_AT_TI_call
    2642                    
    2643 00000002 FFFEF7FF!         BL        NPIFrame_frameMsg     ; [DPU_V7M3_PIPE] |800|  ; [KEEP 32-BIT INS]
    2644                            ; CALL OCCURS {NPIFrame_frameMsg }  ; [] |800| 
    2645 00000006 4606              MOV       V3, A1                ; [DPU_V7M3_PIPE] |800|  ; [ORIG 16-BIT INS]
    2646                            .dwpsn  file "../Application/CoP/NPI/npi_task.c",line 802,column 5,is_stmt,isa 1
    2647 00000008 200C              MOVS      A1, #12               ; [DPU_V7M3_PIPE] |802|  ; [ORIG 16-BIT INS]
    2648                    $C$DW$216       .dwtag  DW_TAG_TI_branch
    2649                            .dwattr $C$DW$216, DW_AT_low_pc(0x00)
    2650                            .dwattr $C$DW$216, DW_AT_name("ICall_malloc")
    2651                            .dwattr $C$DW$216, DW_AT_TI_call
    2652                    
    2653 0000000a FFFEF7FF!         BL        ICall_malloc          ; [DPU_V7M3_PIPE] |802|  ; [KEEP 32-BIT INS]
    2654                            ; CALL OCCURS {ICall_malloc }    ; [] |802| 
    2655 0000000e 4607              MOV       V4, A1                ; [DPU_V7M3_PIPE] |802|  ; [ORIG 16-BIT INS]
    2656                            .dwpsn  file "../Application/CoP/NPI/npi_task.c",line 806,column 5,is_stmt,isa 1
    2657 00000010 480C              LDR       A1, $C$CON31          ; [DPU_V7M3_PIPE] |806|  ; [ORIG 16-BIT INS]
    2658 00000012 6800              LDR       A1, [A1, #0]          ; [DPU_V7M3_PIPE] |806|  ; [ORIG 16-BIT INS]
    2659                    $C$DW$217       .dwtag  DW_TAG_TI_branch
    2660                            .dwattr $C$DW$217, DW_AT_low_pc(0x00)
    2661                            .dwattr $C$DW$217, DW_AT_TI_call
    2662                            .dwattr $C$DW$217, DW_AT_TI_indirect
    2663                    
    2664 00000014 4780              BLX       A1                    ; [DPU_V7M3_PIPE] |806|  ; [ORIG 16-BIT INS]
    2665                            ; CALL OCCURS {}                 ; [] |806| 
    2666 00000016 4605              MOV       V2, A1                ; [DPU_V7M3_PIPE] |806|  ; [ORIG 16-BIT INS]
    2667 00000018 B17E              CBZ       V3, ||$C$L26||        ; []  ; [ORIG 16-BIT INS]
    2668                            .dwpsn  file "../Application/CoP/NPI/npi_task.c",line 808,column 5,is_stmt,isa 1
    2669                            ; BRANCHCC OCCURS {||$C$L26||}   ; [] |808| 
    2670                    ;* --------------------------------------------------------------------------*
    2671 0000001a B177              CBZ       V4, ||$C$L26||        ; []  ; [ORIG 16-BIT INS]
    2672                            ; BRANCHCC OCCURS {||$C$L26||}   ; [] |808| 
    2673                    ;* --------------------------------------------------------------------------*
    2674                            .dwpsn  file "../Application/CoP/NPI/npi_task.c",line 810,column 9,is_stmt,isa 1
    2675 0000001c 60BE              STR       V3, [V4, #8]          ; [DPU_V7M3_PIPE] |810|  ; [ORIG 16-BIT INS]
    2676                            .dwpsn  file "../Application/CoP/NPI/npi_task.c",line 812,column 9,is_stmt,isa 1
    2677 0000001e 7830              LDRB      A1, [V3, #0]          ; [DPU_V7M3_PIPE] |812|  ; [ORIG 16-BIT INS]
    2678 00000020 B958              CBNZ      A1, ||$C$L26||        ; []  ; [ORIG 16-BIT INS]
    2679                            ; BRANCHCC OCCURS {||$C$L26||}   ; [] |812| 
    2680                    ;* --------------------------------------------------------------------------*
    2681                            .dwpsn  file "../Application/CoP/NPI/npi_task.c",line 830,column 17,is_stmt,isa 1
    2682 00000022 4C0A              LDR       V1, $C$CON34          ; [DPU_V7M3_PIPE] |830|  ; [ORIG 16-BIT INS]
    2683 00000024 6920              LDR       A1, [V1, #16]         ; [DPU_V7M3_PIPE] |830|  ; [ORIG 16-BIT INS]
    2684 00000026 4639              MOV       A2, V4                ; [DPU_V7M3_PIPE] |830|  ; [ORIG 16-BIT INS]
    2685                    $C$DW$218       .dwtag  DW_TAG_TI_branch
    2686                            .dwattr $C$DW$218, DW_AT_low_pc(0x00)
    2687                            .dwattr $C$DW$218, DW_AT_name("ti_sysbios_knl_Queue_enqueue__E")
    2688                            .dwattr $C$DW$218, DW_AT_TI_call
    2689                    
    2690 00000028 FFFEF7FF!         BL        ti_sysbios_knl_Queue_enqueue__E ; [DPU_V7M3_PIPE] |830|  ; [KEEP 32-BIT INS]
    2691                            ; CALL OCCURS {ti_sysbios_knl_Queue_enqueue__E }  ; [] |830| 
    2692                            .dwpsn  file "../Application/CoP/NPI/npi_task.c",line 834,column 17,is_stmt,isa 1
    2693 0000002c 88A0              LDRH      A1, [V1, #4]          ; [DPU_V7M3_PIPE] |834|  ; [ORIG 16-BIT INS]
    2694 0000002e 0010F040          ORR       A1, A1, #16           ; [DPU_V7M3_PIPE] |834|  ; [KEEP 32-BIT INS]
    2695 00000032 80A0              STRH      A1, [V1, #4]          ; [DPU_V7M3_PIPE] |834|  ; [ORIG 16-BIT INS]
TI ARM Assembler PC v18.1.3 Wed Dec 12 17:41:42 2018

Tools Copyright (c) 1996-2017 Texas Instruments Incorporated
C:\Users\THE_WO~1\AppData\Local\Temp\{EDB6CCF9-DACC-43B8-95CB-11108A63F946} PAGE   50

    2696                            .dwpsn  file "../Application/CoP/NPI/npi_task.c",line 835,column 17,is_stmt,isa 1
    2697 00000034 69E0              LDR       A1, [V1, #28]         ; [DPU_V7M3_PIPE] |835|  ; [ORIG 16-BIT INS]
    2698                    $C$DW$219       .dwtag  DW_TAG_TI_branch
    2699                            .dwattr $C$DW$219, DW_AT_low_pc(0x00)
    2700                            .dwattr $C$DW$219, DW_AT_name("ti_sysbios_knl_Semaphore_post__E")
    2701                            .dwattr $C$DW$219, DW_AT_TI_call
    2702                    
    2703 00000036 FFFEF7FF!         BL        ti_sysbios_knl_Semaphore_post__E ; [DPU_V7M3_PIPE] |835|  ; [KEEP 32-BIT INS]
    2704                            ; CALL OCCURS {ti_sysbios_knl_Semaphore_post__E }  ; [] |835| 
    2705                    ;* --------------------------------------------------------------------------*
    2706 0000003a           ||$C$L26||:    
    2707                            .dwpsn  file "../Application/CoP/NPI/npi_task.c",line 847,column 5,is_stmt,isa 1
    2708 0000003a 4803              LDR       A1, $C$CON33          ; [DPU_V7M3_PIPE] |847|  ; [ORIG 16-BIT INS]
    2709 0000003c 6801              LDR       A2, [A1, #0]          ; [DPU_V7M3_PIPE] |847|  ; [ORIG 16-BIT INS]
    2710 0000003e 4628              MOV       A1, V2                ; [DPU_V7M3_PIPE] |847|  ; [ORIG 16-BIT INS]
    2711                    $C$DW$220       .dwtag  DW_TAG_TI_branch
    2712                            .dwattr $C$DW$220, DW_AT_low_pc(0x00)
    2713                            .dwattr $C$DW$220, DW_AT_TI_call
    2714                            .dwattr $C$DW$220, DW_AT_TI_indirect
    2715                    
    2716 00000040 4788              BLX       A2                    ; [DPU_V7M3_PIPE] |847|  ; [ORIG 16-BIT INS]
    2717                            ; CALL OCCURS {}                 ; [] |847| 
    2718                    $C$DW$221       .dwtag  DW_TAG_TI_branch
    2719                            .dwattr $C$DW$221, DW_AT_low_pc(0x00)
    2720                            .dwattr $C$DW$221, DW_AT_TI_return
    2721                    
    2722 00000042 BDF8              POP       {A4, V1, V2, V3, V4, PC} ; [DPU_V7M3_PIPE]  ; [ORIG 16-BIT INS]
    2723                            .dwcfi  cfa_offset, 0
    2724                            .dwcfi  restore_reg, 7
    2725                            .dwcfi  restore_reg, 6
    2726                            .dwcfi  restore_reg, 5
    2727                            .dwcfi  restore_reg, 4
    2728                            .dwcfi  restore_reg, 3
    2729                            ; BRANCH OCCURS                  ; [] 
    2730                            .dwattr $C$DW$210, DW_AT_TI_end_file("../Application/CoP/NPI/npi_task.c")
    2731                            .dwattr $C$DW$210, DW_AT_TI_end_line(0x350)
    2732                            .dwattr $C$DW$210, DW_AT_TI_end_column(0x01)
    2733                            .dwendentry
    2734                            .dwendtag $C$DW$210
    2735                    
    2736 00000000                   .sect   ".text:NPITask_registerIncomingTXEventAppCB"
    2737                            .clink
    2738                            .thumbfunc NPITask_registerIncomingTXEventAppCB
    2739 00000000                   .thumb
    2740                            .global NPITask_registerIncomingTXEventAppCB
    2741                    
    2742                    $C$DW$222       .dwtag  DW_TAG_subprogram
    2743                            .dwattr $C$DW$222, DW_AT_name("NPITask_registerIncomingTXEventAppCB")
    2744                            .dwattr $C$DW$222, DW_AT_low_pc(NPITask_registerIncomingTXEventAppCB)
    2745                            .dwattr $C$DW$222, DW_AT_high_pc(0x00)
    2746                            .dwattr $C$DW$222, DW_AT_TI_symbol_name("NPITask_registerIncomingTXEventAppCB")
    2747                            .dwattr $C$DW$222, DW_AT_external
    2748                            .dwattr $C$DW$222, DW_AT_TI_begin_file("../Application/CoP/NPI/npi_task.c")
    2749                            .dwattr $C$DW$222, DW_AT_TI_begin_line(0x30b)
    2750                            .dwattr $C$DW$222, DW_AT_TI_begin_column(0x06)
TI ARM Assembler PC v18.1.3 Wed Dec 12 17:41:42 2018

Tools Copyright (c) 1996-2017 Texas Instruments Incorporated
C:\Users\THE_WO~1\AppData\Local\Temp\{EDB6CCF9-DACC-43B8-95CB-11108A63F946} PAGE   51

    2751                            .dwattr $C$DW$222, DW_AT_decl_file("../Application/CoP/NPI/npi_task.c")
    2752                            .dwattr $C$DW$222, DW_AT_decl_line(0x30b)
    2753                            .dwattr $C$DW$222, DW_AT_decl_column(0x06)
    2754                            .dwattr $C$DW$222, DW_AT_TI_max_frame_size(0x00)
    2755                            .dwpsn  file "../Application/CoP/NPI/npi_task.c",line 781,column 1,is_stmt,address NPITask_reg
    2756                    
    2757                            .dwfde $C$DW$CIE, NPITask_registerIncomingTXEventAppCB
    2758                    $C$DW$223       .dwtag  DW_TAG_formal_parameter
    2759                            .dwattr $C$DW$223, DW_AT_name("appTxCB")
    2760                            .dwattr $C$DW$223, DW_AT_TI_symbol_name("appTxCB")
    2761                            .dwattr $C$DW$223, DW_AT_type(*$C$DW$T$879)
    2762                            .dwattr $C$DW$223, DW_AT_location[DW_OP_reg0]
    2763                    
    2764                    $C$DW$224       .dwtag  DW_TAG_formal_parameter
    2765                            .dwattr $C$DW$224, DW_AT_name("reRouteType")
    2766                            .dwattr $C$DW$224, DW_AT_TI_symbol_name("reRouteType")
    2767                            .dwattr $C$DW$224, DW_AT_type(*$C$DW$T$10)
    2768                            .dwattr $C$DW$224, DW_AT_location[DW_OP_reg1]
    2769                    
    2770                    
    2771                    ;*****************************************************************************
    2772                    ;* FUNCTION NAME: NPITask_registerIncomingTXEventAppCB                       *
    2773                    ;*                                                                           *
    2774                    ;*   Regs Modified     : A3                                                  *
    2775                    ;*   Regs Used         : A1,A2,A3,LR                                         *
    2776                    ;*   Local Frame Size  : 0 Args + 0 Auto + 0 Save = 0 byte                   *
    2777                    ;*****************************************************************************
    2778                    NPITask_registerIncomingTXEventAppCB:
    2779                    ;* --------------------------------------------------------------------------*
    2780                    ;* A3    assigned to $O$C1
    2781                    ;* A1    assigned to appTxCB
    2782                    $C$DW$225       .dwtag  DW_TAG_variable
    2783                            .dwattr $C$DW$225, DW_AT_name("appTxCB")
    2784                            .dwattr $C$DW$225, DW_AT_TI_symbol_name("appTxCB")
    2785                            .dwattr $C$DW$225, DW_AT_type(*$C$DW$T$880)
    2786                            .dwattr $C$DW$225, DW_AT_location[DW_OP_reg0]
    2787                    
    2788                    ;* A2    assigned to reRouteType
    2789                    $C$DW$226       .dwtag  DW_TAG_variable
    2790                            .dwattr $C$DW$226, DW_AT_name("reRouteType")
    2791                            .dwattr $C$DW$226, DW_AT_TI_symbol_name("reRouteType")
    2792                            .dwattr $C$DW$226, DW_AT_type(*$C$DW$T$709)
    2793                            .dwattr $C$DW$226, DW_AT_location[DW_OP_reg1]
    2794                    
    2795                            .dwcfi  cfa_offset, 0
    2796                            .dwpsn  file "../Application/CoP/NPI/npi_task.c",line 782,column 5,is_stmt,isa 1
    2797 00000000 4A01              LDR       A3, $C$CON36          ; [DPU_V7M3_PIPE] |782|  ; [ORIG 16-BIT INS]
    2798 00000002 6250              STR       A1, [A3, #36]         ; [DPU_V7M3_PIPE] |782|  ; [ORIG 16-BIT INS]
    2799                            .dwpsn  file "../Application/CoP/NPI/npi_task.c",line 783,column 5,is_stmt,isa 1
    2800 00000004 7091              STRB      A2, [A3, #2]          ; [DPU_V7M3_PIPE] |783|  ; [ORIG 16-BIT INS]
    2801                    $C$DW$227       .dwtag  DW_TAG_TI_branch
    2802                            .dwattr $C$DW$227, DW_AT_low_pc(0x00)
    2803                            .dwattr $C$DW$227, DW_AT_TI_return
    2804                    
    2805 00000006 4770              BX        LR                    ; [DPU_V7M3_PIPE]  ; [ORIG 16-BIT INS]
TI ARM Assembler PC v18.1.3 Wed Dec 12 17:41:42 2018

Tools Copyright (c) 1996-2017 Texas Instruments Incorporated
C:\Users\THE_WO~1\AppData\Local\Temp\{EDB6CCF9-DACC-43B8-95CB-11108A63F946} PAGE   52

    2806                            ; BRANCH OCCURS                  ; [] 
    2807                            .dwattr $C$DW$222, DW_AT_TI_end_file("../Application/CoP/NPI/npi_task.c")
    2808                            .dwattr $C$DW$222, DW_AT_TI_end_line(0x310)
    2809                            .dwattr $C$DW$222, DW_AT_TI_end_column(0x01)
    2810                            .dwendentry
    2811                            .dwendtag $C$DW$222
    2812                    
    2813 00000000                   .sect   ".text:NPITask_registerIncomingRXEventAppCB"
    2814                            .clink
    2815                            .thumbfunc NPITask_registerIncomingRXEventAppCB
    2816 00000000                   .thumb
    2817                            .global NPITask_registerIncomingRXEventAppCB
    2818                    
    2819                    $C$DW$228       .dwtag  DW_TAG_subprogram
    2820                            .dwattr $C$DW$228, DW_AT_name("NPITask_registerIncomingRXEventAppCB")
    2821                            .dwattr $C$DW$228, DW_AT_low_pc(NPITask_registerIncomingRXEventAppCB)
    2822                            .dwattr $C$DW$228, DW_AT_high_pc(0x00)
    2823                            .dwattr $C$DW$228, DW_AT_TI_symbol_name("NPITask_registerIncomingRXEventAppCB")
    2824                            .dwattr $C$DW$228, DW_AT_external
    2825                            .dwattr $C$DW$228, DW_AT_TI_begin_file("../Application/CoP/NPI/npi_task.c")
    2826                            .dwattr $C$DW$228, DW_AT_TI_begin_line(0x2fb)
    2827                            .dwattr $C$DW$228, DW_AT_TI_begin_column(0x06)
    2828                            .dwattr $C$DW$228, DW_AT_decl_file("../Application/CoP/NPI/npi_task.c")
    2829                            .dwattr $C$DW$228, DW_AT_decl_line(0x2fb)
    2830                            .dwattr $C$DW$228, DW_AT_decl_column(0x06)
    2831                            .dwattr $C$DW$228, DW_AT_TI_max_frame_size(0x00)
    2832                            .dwpsn  file "../Application/CoP/NPI/npi_task.c",line 765,column 1,is_stmt,address NPITask_reg
    2833                    
    2834                            .dwfde $C$DW$CIE, NPITask_registerIncomingRXEventAppCB
    2835                    $C$DW$229       .dwtag  DW_TAG_formal_parameter
    2836                            .dwattr $C$DW$229, DW_AT_name("appRxCB")
    2837                            .dwattr $C$DW$229, DW_AT_TI_symbol_name("appRxCB")
    2838                            .dwattr $C$DW$229, DW_AT_type(*$C$DW$T$879)
    2839                            .dwattr $C$DW$229, DW_AT_location[DW_OP_reg0]
    2840                    
    2841                    $C$DW$230       .dwtag  DW_TAG_formal_parameter
    2842                            .dwattr $C$DW$230, DW_AT_name("reRouteType")
    2843                            .dwattr $C$DW$230, DW_AT_TI_symbol_name("reRouteType")
    2844                            .dwattr $C$DW$230, DW_AT_type(*$C$DW$T$10)
    2845                            .dwattr $C$DW$230, DW_AT_location[DW_OP_reg1]
    2846                    
    2847                    
    2848                    ;*****************************************************************************
    2849                    ;* FUNCTION NAME: NPITask_registerIncomingRXEventAppCB                       *
    2850                    ;*                                                                           *
    2851                    ;*   Regs Modified     : A3                                                  *
    2852                    ;*   Regs Used         : A1,A2,A3,LR                                         *
    2853                    ;*   Local Frame Size  : 0 Args + 0 Auto + 0 Save = 0 byte                   *
    2854                    ;*****************************************************************************
    2855                    NPITask_registerIncomingRXEventAppCB:
    2856                    ;* --------------------------------------------------------------------------*
    2857                    ;* A3    assigned to $O$C1
    2858                    ;* A1    assigned to appRxCB
    2859                    $C$DW$231       .dwtag  DW_TAG_variable
    2860                            .dwattr $C$DW$231, DW_AT_name("appRxCB")
TI ARM Assembler PC v18.1.3 Wed Dec 12 17:41:42 2018

Tools Copyright (c) 1996-2017 Texas Instruments Incorporated
C:\Users\THE_WO~1\AppData\Local\Temp\{EDB6CCF9-DACC-43B8-95CB-11108A63F946} PAGE   53

    2861                            .dwattr $C$DW$231, DW_AT_TI_symbol_name("appRxCB")
    2862                            .dwattr $C$DW$231, DW_AT_type(*$C$DW$T$880)
    2863                            .dwattr $C$DW$231, DW_AT_location[DW_OP_reg0]
    2864                    
    2865                    ;* A2    assigned to reRouteType
    2866                    $C$DW$232       .dwtag  DW_TAG_variable
    2867                            .dwattr $C$DW$232, DW_AT_name("reRouteType")
    2868                            .dwattr $C$DW$232, DW_AT_TI_symbol_name("reRouteType")
    2869                            .dwattr $C$DW$232, DW_AT_type(*$C$DW$T$710)
    2870                            .dwattr $C$DW$232, DW_AT_location[DW_OP_reg1]
    2871                    
    2872                            .dwcfi  cfa_offset, 0
    2873                            .dwpsn  file "../Application/CoP/NPI/npi_task.c",line 766,column 5,is_stmt,isa 1
    2874 00000000 4A01              LDR       A3, $C$CON38          ; [DPU_V7M3_PIPE] |766|  ; [ORIG 16-BIT INS]
    2875 00000002 6210              STR       A1, [A3, #32]         ; [DPU_V7M3_PIPE] |766|  ; [ORIG 16-BIT INS]
    2876                            .dwpsn  file "../Application/CoP/NPI/npi_task.c",line 767,column 5,is_stmt,isa 1
    2877 00000004 7051              STRB      A2, [A3, #1]          ; [DPU_V7M3_PIPE] |767|  ; [ORIG 16-BIT INS]
    2878                    $C$DW$233       .dwtag  DW_TAG_TI_branch
    2879                            .dwattr $C$DW$233, DW_AT_low_pc(0x00)
    2880                            .dwattr $C$DW$233, DW_AT_TI_return
    2881                    
    2882 00000006 4770              BX        LR                    ; [DPU_V7M3_PIPE]  ; [ORIG 16-BIT INS]
    2883                            ; BRANCH OCCURS                  ; [] 
    2884                            .dwattr $C$DW$228, DW_AT_TI_end_file("../Application/CoP/NPI/npi_task.c")
    2885                            .dwattr $C$DW$228, DW_AT_TI_end_line(0x300)
    2886                            .dwattr $C$DW$228, DW_AT_TI_end_column(0x01)
    2887                            .dwendentry
    2888                            .dwendtag $C$DW$228
    2889                    
    2890 00000000                   .sect   ".text:NPITask_createTask"
    2891                            .clink
    2892                            .thumbfunc NPITask_createTask
    2893 00000000                   .thumb
    2894                            .global NPITask_createTask
    2895                    
    2896                    $C$DW$234       .dwtag  DW_TAG_subprogram
    2897                            .dwattr $C$DW$234, DW_AT_name("NPITask_createTask")
    2898                            .dwattr $C$DW$234, DW_AT_low_pc(NPITask_createTask)
    2899                            .dwattr $C$DW$234, DW_AT_high_pc(0x00)
    2900                            .dwattr $C$DW$234, DW_AT_TI_symbol_name("NPITask_createTask")
    2901                            .dwattr $C$DW$234, DW_AT_external
    2902                            .dwattr $C$DW$234, DW_AT_TI_begin_file("../Application/CoP/NPI/npi_task.c")
    2903                            .dwattr $C$DW$234, DW_AT_TI_begin_line(0x2e1)
    2904                            .dwattr $C$DW$234, DW_AT_TI_begin_column(0x06)
    2905                            .dwattr $C$DW$234, DW_AT_decl_file("../Application/CoP/NPI/npi_task.c")
    2906                            .dwattr $C$DW$234, DW_AT_decl_line(0x2e1)
    2907                            .dwattr $C$DW$234, DW_AT_decl_column(0x06)
    2908                            .dwattr $C$DW$234, DW_AT_TI_max_frame_size(0x48)
    2909                            .dwpsn  file "../Application/CoP/NPI/npi_task.c",line 738,column 1,is_stmt,address NPITask_cre
    2910                    
    2911                            .dwfde $C$DW$CIE, NPITask_createTask
    2912                    $C$DW$235       .dwtag  DW_TAG_formal_parameter
    2913                            .dwattr $C$DW$235, DW_AT_name("stackID")
    2914                            .dwattr $C$DW$235, DW_AT_TI_symbol_name("stackID")
    2915                            .dwattr $C$DW$235, DW_AT_type(*$C$DW$T$152)
TI ARM Assembler PC v18.1.3 Wed Dec 12 17:41:42 2018

Tools Copyright (c) 1996-2017 Texas Instruments Incorporated
C:\Users\THE_WO~1\AppData\Local\Temp\{EDB6CCF9-DACC-43B8-95CB-11108A63F946} PAGE   54

    2916                            .dwattr $C$DW$235, DW_AT_location[DW_OP_reg0]
    2917                    
    2918                    
    2919                    ;*****************************************************************************
    2920                    ;* FUNCTION NAME: NPITask_createTask                                         *
    2921                    ;*                                                                           *
    2922                    ;*   Regs Modified     : A1,A2,A3,A4,V1,V2,V9,SP,LR,SR                       *
    2923                    ;*   Regs Used         : A1,A2,A3,A4,V1,V2,V9,SP,LR,SR                       *
    2924                    ;*   Local Frame Size  : 0 Args + 60 Auto + 12 Save = 72 byte                *
    2925                    ;*****************************************************************************
    2926                    NPITask_createTask:
    2927                    ;* --------------------------------------------------------------------------*
    2928                    $C$DW$236       .dwtag  DW_TAG_variable
    2929                            .dwattr $C$DW$236, DW_AT_name("npiTaskParams")
    2930                            .dwattr $C$DW$236, DW_AT_TI_symbol_name("npiTaskParams")
    2931                            .dwattr $C$DW$236, DW_AT_type(*$C$DW$T$850)
    2932                            .dwattr $C$DW$236, DW_AT_location[DW_OP_breg13 0]
    2933                    
    2934                    ;* V1    assigned to $O$C1
    2935                    ;* V2    assigned to $O$C2
    2936                    ;* A1    assigned to stackID
